
mbrot.out:     file format elf32-littleriscv

Contents of section .text:
 0000 37310000 13010100 1301c1ff ef008000  71..............
 0010 73001000 130101fe 232e1100 232c8100  s.......#...#,..
 0020 232a9100 23263101 23282101 ef10807a  #*..#&1.#(!....z
 0030 13541500 13741400 93074006 13041400  .T...t....@.....
 0040 13050000 3304f402 93040000 ef108077  ....3..........w
 0050 93094006 13050000 ef008005 13850400  ..@.............
 0060 ef10c075 732910c0 13850400 ef000009  ...us)..........
 0070 732510c0 13052503 33052541 33558502  s%....%.3.%A3U..
 0080 ef104074 ef108074 13758500 e30c05fe  ..@t...t.u......
 0090 ef104074 93741500 ef10c073 13541500  ..@t.t.....s.T..
 00a0 13741400 13041400 33043403 6ff09ffa  .t......3.4.o...
 00b0 130101ff 23248100 23229100 23202101  ....#$..#"..# !.
 00c0 23261100 13090500 13040000 b7040100  #&..............
 00d0 13050400 93050900 13041400 ef10006d  ...............m
 00e0 e31894fe 8320c100 03248100 83244100  ..... ...$...$A.
 00f0 03290100 13010101 67800000 b7260000  .)......g....&..
 0100 93172500 9386c692 37270000 130101fa  ..%.....7'......
 0110 b386d700 13074792 2328a103 3387e700  ......G.#(..3...
 0120 03ad0600 03250700 37270000 1307c791  .....%..7'......
 0130 b387e700 93050d00 232e1104 232c8104  ........#...#,..
 0140 232a9104 23282105 83a40700 23263105  #*..#(!.....#&1.
 0150 23244105 23225105 23206105 232e7103  #$A.#"Q.# a.#.q.
 0160 232c8103 232a9103 2326b103 ef10c01b  #,..#*..#&......
 0170 b7270000 83a54793 13090500 37240000  .'....G.....7$..
 0180 ef009062 b7270000 83a58793 ef00d061  ...b.'.........a
 0190 93850400 ef008023 8325c493 93090500  .......#.%......
 01a0 2328a100 13050900 ef008068 2322a100  #(.........h#"..
 01b0 93850400 13850900 ef100017 8325c493  .............%..
 01c0 ef000067 232aa100 732410c0 ef108060  ...g#*..s$.....`
 01d0 93571500 93f71700 93871700 13074006  .W............@.
 01e0 b387e702 23260100 930be001 232cf100  ....#&......#,..
 01f0 b7270000 03ab0794 93072003 b3878740  .'........ ....@
 0200 232ef100 b7170000 9387c77d 2324f100  #..........}#$..
 0210 0324c100 130c0000 13050400 ef00102e  .$..............
 0220 83254101 ef005058 93050500 03250101  .%A...PX.....%..
 0230 ef10800f 93178400 930a0500 2320f100  ............# ..
 0240 13050c00 ef00902b 83254100 13840a00  .......+.%A.....
 0250 93040000 ef005055 93050d00 ef000017  ......PU........
 0260 83270100 130a0500 930d0500 b38c8701  .'..............
 0270 6f000004 13850d00 ef004015 93050400  o.........@.....
 0280 ef009052 93850a00 ef004014 93850900  ...R......@.....
 0290 13040500 13050900 ef100009 93050a00  ................
 02a0 ef00c012 93841400 930d0500 6388740d  ............c.t.
 02b0 93850d00 13850d00 ef00104f 13090500  ...........O....
 02c0 93050400 13050400 ef00104e 93050500  ...........N....
 02d0 93090500 13050900 ef00400f 93050b00  ..........@.....
 02e0 ef001034 93850d00 e356a0f8 83278100  ...4.....V...'..
 02f0 93942400 13850c00 b3849700 83a50400  ..$.............
 0300 ef10c04a 130c1c00 93070010 e31afcf2  ...J............
 0310 732510c0 8327c101 3305f500 83278101  s%...'..3....'..
 0320 3355f502 8327c100 93871700 13840700  3U...'..........
 0330 2326f100 ef100049 e31c84ed 8320c105  #&.....I..... ..
 0340 03248105 83244105 03290105 8329c104  .$...$A..)...)..
 0350 032a8104 832a4104 032b0104 832bc103  .*...*A..+...+..
 0360 032c8103 832c4103 032d0103 832dc102  .,...,A..-...-..
 0370 13050000 13010106 67800000 93050000  ........g.......
 0380 13850c00 ef108042 6ff0dff7 13075000  .......Bo.....P.
 0390 93070001 13060002 93051000 b356f540  .............V.@
 03a0 1307f7ff 63880600 638eb700 3306f640  ....c...c...3..@
 03b0 13850600 93d71740 e31207fe 3305a640  .......@....3..@
 03c0 67800000 1305e6ff 67800000 130101ff  g.......g.......
 03d0 37078000 1307f7ff 13d87501 23229100  7.........u.#"..
 03e0 93547501 3373a700 93f4f40f b376b700  .Tu.3s.......v..
 03f0 23202101 1378f80f 1359f501 23261100  # !..x...Y..#&..
 0400 23248100 93d5f501 93070300 13850400  #$..............
 0410 13060900 131e3300 939e3600 b3880441  ......3...6....A
 0420 6306b912 635a100f 63080818 9307f00f  c...cZ..c.......
 0430 6380f41a b7070004 b3eefe00 9307b001  c...............
 0440 63ce1731 93070002 b3871741 b397fe00  c..1.......A....
 0450 b3d81e01 b337f000 b3e7f800 b307fe40  .....7.........@
 0460 13975700 63500720 37040004 1304f4ff  ..W.cP. 7.......
 0470 33f48700 13050400 eff05ff1 1305b5ff  3........._.....
 0480 b317a400 634c9520 33059540 13041500  ....cL. 3..@....
 0490 13070002 33078740 3397e700 3337e000  ....3..@3...37..
 04a0 b3d78700 b3e7e700 93040000 13f77700  ..............w.
 04b0 630a0700 13f7f700 93064000 6304d700  c.........@.c...
 04c0 93874700 13975700 6352071a 93841400  ..G...W.cR......
 04d0 1307f00f 13060900 638ce41a 93976700  ........c.....g.
 04e0 93d79700 13f5f40f 8320c100 03248100  ......... ...$..
 04f0 93979700 93147501 13d59700 33659500  ......u.....3e..
 0500 1316f601 83244100 03290100 3365c500  .....$A..)..3e..
 0510 13010101 67800000 6396080c 13871400  ....g...c.......
 0520 1377e70f 631a0718 6396042a 630c0e26  .w..c...c..*c..&
 0530 e38c0efa b307de41 13975700 635c072a  .......A..W.c\.*
 0540 b387ce41 13890500 6ff05ff6 635e100d  ...A....o._.c^..
 0550 630e080a 9307f00f 638cf406 b7070004  c.......c.......
 0560 b3eefe00 9307b001 63ce1727 93070002  ........c..'....
 0570 b3871741 b397fe00 b3d81e01 b337f000  ...A.........7..
 0580 b3e7f800 b387c701 13975700 635c070c  ..........W.c\..
 0590 93841400 1307f00f 638ce40e b706007e  ........c......~
 05a0 13d71700 9386f6ff 93f71700 3377d700  ............3w..
 05b0 b367f700 6ff09fef 638c0e0a 9388f8ff  .g..o...c.......
 05c0 b307de41 e38e08e8 9307f00f e398f4e6  ...A............
 05d0 630e030a 13060000 1305f00f b7074000  c.............@.
 05e0 6ff09ff0 33079840 639a0412 630e0e18  o...3..@c...c...
 05f0 1307f7ff 63080720 9307f00f 6318f812  ....c.. ....c...
 0600 13890500 13830600 6ff09ffc 63820e06  ........o...c...
 0610 9388f8ff b307de01 e38808f6 9307f00f  ................
 0620 e392f4f4 6ff0dffa 6398080a 93841400  ....o...c.......
 0630 13f7e40f 63100718 63100516 630c0e1c  ....c...c...c...
 0640 e3840eea b307de01 13975700 93040000  ..........W.....
 0650 635a0700 370700fc 1307f7ff b3f7e700  cZ..7...........
 0660 93041000 13f77700 e31607e4 13d33700  ......w.......7.
 0670 9307f00f e38ef4f4 93179300 93d79700  ................
 0680 13f5f40f 13060900 6ff01fe6 13060900  ........o.......
 0690 1305f00f 93070000 6ff01fe5 370700fc  ........o...7...
 06a0 1307f7ff b3f7e700 13f77700 b384a440  ..........w....@
 06b0 e31207e0 6ff09ffb 3304de41 93175400  ....o...3..A..T.
 06c0 63c40710 e31804da 13060000 13050000  c...............
 06d0 93070000 6ff05fe1 33079840 63840408  ....o._.3..@c...
 06e0 9307f00f e300f8f2 b7070004 336efe00  ............3n..
 06f0 9307b001 63cae712 93070002 b387e740  ....c..........@
 0700 b317fe00 3357ee00 b337f000 b367f700  ....3W...7...g..
 0710 b387d701 93040800 6ff01fe7 9307f00f  ........o.......
 0720 e300f8ee b7070004 336efe00 9307b001  ........3n......
 0730 63cee70a 93060002 b386e640 b316de00  c..........@....
 0740 b357ee00 3337d000 b3e7e700 b387fe40  .W..37.........@
 0750 93040800 13890500 6ff09fd0 93071000  ........o.......
 0760 6ff0dfcf 630c0e0a 1307f7ff b307de01  o...c...........
 0770 93040800 e30a07e0 9307f00f e31af8f6  ................
 0780 13830600 6ff0dfe4 13830600 93040800  ....o...........
 0790 13890500 6ff0dfed e3060ee6 e38a0ee2  ....o...........
 07a0 6ff05fe3 638a0e04 13860500 93870600  o._.c...........
 07b0 6ff09fd3 9307f00f e38cf4ec b307de01  o...............
 07c0 93d71700 6ff01fea 3384ce41 13890500  ....o...3..A....
 07d0 6ff05fca e3140efc e38e0ede 13890500  o._.............
 07e0 6ff05fe2 93071000 6ff0dfd9 93071000  o._.....o.......
 07f0 6ff0dff5 e39807e6 13060000 93070000  o...............
 0800 6ff09fce b387ce41 93040800 13890500  o......A........
 0810 6ff01fc5 93870600 6ff01fcd 13830600  o.......o.......
 0820 93040800 6ff0dfe4 93071000 6ff05fee  ....o.......o._.
 0830 130101fc 93577501 23282103 23225103  .....Wu.#(!.#"Q.
 0840 232e7101 931a9500 1359f501 232e1102  #.q......Y..#...
 0850 232c8102 232a9102 23263103 23244103  #,..#*..#&1.#$A.
 0860 23206103 93f7f70f 93da9a00 930b0900  # a.............
 0870 63840718 1307f00f 638ae718 939a3a00  c.......c.....:.
 0880 37070004 b3eaea00 138a17f8 13040000  7...............
 0890 130b0000 93d77501 93949500 93f7f70f  ......u.........
 08a0 93d49400 93d9f501 63820714 1307f00f  ........c.......
 08b0 638ee702 37070004 93943400 938717f8  c...7.....4.....
 08c0 b3e4e400 330afa40 13070000 33648700  ....3..@....3d..
 08d0 b7270000 9387c785 13142400 3304f400  .'........$.3...
 08e0 83270400 33493901 67800700 130a1af0  .'..3I9.g.......
 08f0 63980412 13072000 33648700 b7270000  c..... .3d...'..
 0900 9387c789 13142400 3304f400 83270400  ......$.3....'..
 0910 33493901 67800700 13090000 1307f00f  3I9.g...........
 0920 b7074000 13959700 8320c103 03248103  ..@...... ...$..
 0930 93177701 13559500 1319f901 3365f500  ..w..U......3e..
 0940 33652501 83244103 03290103 8329c102  3e%..$A..)...)..
 0950 032a8102 832a4102 032b0102 832bc101  .*...*A..+...+..
 0960 13010104 67800000 1307f00f 93070000  ....g...........
 0970 6ff05ffb 938a0400 938b0900 130b0700  o._.............
 0980 93072000 630afb24 93073000 e306fbf8  .. .c..$..0.....
 0990 93071000 6308fb0e 1307fa07 13f91b00  ....c...........
 09a0 635ae018 93f77a00 638a0700 93f7fa00  cZ....z.c.......
 09b0 93064000 6384d700 938a4a00 93974a00  ..@.c.....J...J.
 09c0 63da0700 b70700f8 9387f7ff b3fafa00  c...............
 09d0 13070a08 9307e00f e3c8e7f8 93976a00  ..............j.
 09e0 93d79700 1377f70f 6ff0dff3 639c0406  .....w..o...c...
 09f0 13071000 6ff05ff0 63900a04 13044000  ....o._.c.....@.
 0a00 130a0000 130b1000 6ff0dfe8 639e0a00  ........o...c...
 0a10 13048000 130af00f 130b2000 6ff09fe7  .......... .o...
 0a20 13073000 6ff09fea 1304c000 130af00f  ..0.o...........
 0a30 130b3000 6ff01fe6 13850a00 2326b100  ..0.o.......#&..
 0a40 eff0df94 9307b5ff b39afa00 9307a0f8  ................
 0a50 338aa740 13040000 130b0000 8325c100  3..@.........%..
 0a60 6ff05fe3 13850400 eff05f92 1307b5ff  o._......._.....
 0a70 b307aa00 b394e400 138a6707 13070000  ..........g.....
 0a80 6ff0dfe4 13f91b00 13070000 93070000  o...............
 0a90 6ff05fe9 37060100 13955400 1306f6ff  o._.7.....T.....
 0aa0 93570501 3376c500 63f69a0e b3d5fa02  .W..3v..c.......
 0ab0 130afaff 93860a00 13070000 3388c502  ............3...
 0ac0 b3f6f602 93960601 33e7e600 637e0701  ........3...c~..
 0ad0 3307a700 9386f5ff 6366a70e 6374070f  3.......cf..ct..
 0ae0 9385e5ff 3307a700 33070741 b356f702  ....3...3..A.V..
 0af0 3377f702 b38ac602 93170701 63fe5701  3w..........c.W.
 0b00 b387a700 1387f6ff 63eaa70a 63f8570b  ........c...c.W.
 0b10 9386e6ff b387a700 93950501 b38a5741  ..............WA
 0b20 b3e5d500 b33a5001 b3ea5501 930b0900  .....:P...U.....
 0b30 6ff09fe6 93061000 b386e640 630a0700  o..........@c...
 0b40 1306b001 13070000 93070000 e34cd6dc  .............L..
 0b50 130aea09 339a4a01 b3d7da00 b33a4001  ....3.J......:@.
 0b60 b3e75701 13f77700 630a0700 13f7f700  ..W...w.c.......
 0b70 93064000 6304d700 93874700 13975700  ..@.c.....G...W.
 0b80 63460704 93976700 93d79700 13070000  cF....g.........
 0b90 6ff05fd9 93d61a00 b3d5f602 1397fa01  o._.............
 0ba0 13570701 3388c502 6ff09ff1 938b0900  .W..3...o.......
 0bb0 130b0700 930a0000 6ff09fdc 93060700  ........o.......
 0bc0 6ff09ff5 93850600 6ff01ff2 13071000  o.......o.......
 0bd0 93070000 6ff01fd5 13f91b00 1307f00f  ....o...........
 0be0 93070000 6ff01fd4 130101ff 23261100  ....o.......#&..
 0bf0 23248100 23229100 63080504 9357f541  #$..#"..c....W.A
 0c00 33c4a700 3304f440 93040500 13050400  3...3..@........
 0c10 eff0cff7 9307e009 3387a740 93076009  ........3..@..`.
 0c20 93d4f401 63cee704 93068000 9377f70f  ....c........w..
 0c30 63d6a600 130585ff 3314a400 13149400  c.......3.......
 0c40 13549400 6f000001 93040000 93070000  .T..o...........
 0c50 13040000 13149400 13559400 8320c100  .........U... ..
 0c60 03248100 93977701 9394f401 3365f500  .$....w.....3e..
 0c70 33659500 83244100 13010101 67800000  3e...$A.....g...
 0c80 93079009 63d0e702 9307b501 93065000  ....c.........P.
 0c90 b317f400 b386a640 3354d400 b337f000  .......@3T...7..
 0ca0 3364f400 93075000 63d6a700 9307b5ff  3d....P.c.......
 0cb0 3314f400 b70600fc 9386f6ff 93777400  3............wt.
 0cc0 3376d400 63840702 9377f400 93054000  3v..c....w....@.
 0cd0 638eb700 13064600 93175600 63d80700  c.....F...V.c...
 0ce0 9307f009 3376d600 3387a740 13146600  ....3v..3..@..f.
 0cf0 13549400 9377f70f 6ff0dff5 130101ff  .T...w..o.......
 0d00 23261100 23248100 630c0504 13040500  #&..#$..c.......
 0d10 eff0cfe7 9307e009 3387a740 93076009  ........3..@..`.
 0d20 63c4e706 93068000 9377f70f 63d6a600  c........w..c...
 0d30 130585ff 3314a400 13149400 13549400  ....3........T..
 0d40 13149400 13559400 8320c100 03248100  .....U... ...$..
 0d50 93977701 3365f500 13010101 67800000  ..w.3e......g...
 0d60 13040000 13149400 13559400 8320c100  .........U... ..
 0d70 03248100 93070000 93977701 3365f500  .$........w.3e..
 0d80 13010101 67800000 93079009 63d0e702  ....g.......c...
 0d90 9307b501 93065000 b317f400 b386a640  ......P........@
 0da0 b337f000 3354d400 33e48700 93075000  .7..3T..3.....P.
 0db0 63d6a700 9307b5ff 3314f400 b70600fc  c.......3.......
 0dc0 9386f6ff 93777400 3376d400 63840702  .....wt.3v..c...
 0dd0 9377f400 93054000 638eb700 13064600  .w....@.c.....F.
 0de0 93175600 63d80700 9307f009 3376d600  ..V.c.......3v..
 0df0 3387a740 13146600 13549400 13149400  3..@..f..T......
 0e00 13559400 8320c100 03248100 9377f70f  .U... ...$...w..
 0e10 93977701 3365f500 13010101 67800000  ..w.3e......g...
 0e20 93567501 b7078000 9387f7ff 13d67501  .Vu...........u.
 0e30 93f6f60f 1308f00f b3f8a700 1357f501  .............W..
 0e40 b3f7b700 1376f60f 13d5f501 638a0603  .....v......c...
 0e50 63020603 639a0602 63140600 638a0704  c...c...c...c...
 0e60 63820804 6300a706 13051000 631e0702  c...c.......c...
 0e70 67800000 e38007fe 1305e0ff 67800000  g...........g...
 0e80 e39c08fe 630cd602 63140600 e38e07fc  ....c...c.......
 0e90 e31ca7fc 635ad602 63180500 13051000  ....cZ..c.......
 0ea0 67800000 e31605fc 1305f0ff 67800000  g...........g...
 0eb0 13050000 e39a08fa 67800000 e38a07fc  ........g.......
 0ec0 6ff09ffb 93060000 63c8c600 e3ee17f9  o.......c.......
 0ed0 13050000 e3fef8f8 e30807fc 13050700  ................
 0ee0 67800000 93567501 b7078000 9387f7ff  g....Vu.........
 0ef0 13d67501 93f6f60f 1308f00f b3f8a700  ..u.............
 0f00 1357f501 b3f7b700 1376f60f 13d5f501  .W.......v......
 0f10 63820605 630e0601 63920604 63100602  c...c...c...c...
 0f20 639e0700 13050000 639e0800 67800000  c.......c...g...
 0f30 e38407fe 13052000 67800000 638e0802  ...... .g...c...
 0f40 6304a704 13051000 e30207fe 1305f0ff  c...............
 0f50 67800000 e39008fe 6304d602 63140600  g.......c...c...
 0f60 e38207fe e310a7fe 6352d602 e31005fe  ........cR......
 0f70 13051000 67800000 e30a05fc 67800000  ....g.......g...
 0f80 e38207fe 6ff01ffb 93060000 63c8c600  ....o.......c...
 0f90 e3ea17fb 13050000 e3faf8f8 e30807fa  ................
 0fa0 13050700 67800000 130101fd 23248102  ....g.......#$..
 0fb0 13547501 232e3101 232c4101 93199500  .Tu.#.1.#,A.....
 0fc0 23261102 23229102 23202103 232a5101  #&..#"..# !.#*Q.
 0fd0 23286101 1374f40f 93d99900 135af501  #(a..t.......Z..
 0fe0 630e0410 9307f00f 6306f414 93973900  c.......c.....9.
 0ff0 37070004 b3e9e700 130414f8 93040000  7...............
 1000 130b0000 13d77501 939a9500 1377f70f  ......u......w..
 1010 93da9a00 13d9f501 63060710 9307f00f  ........c.......
 1020 6304f704 939a3a00 130717f8 b7070004  c.....:.........
 1030 b3eafa00 3304e400 93060000 33452a01  ....3.......3E*.
 1040 9307f000 13070500 13061400 63e09718  ............c...
 1050 b7270000 9387c78d 93942400 b384f400  .'........$.....
 1060 83a70400 67800700 1304f40f 639c0a12  ....g.......c...
 1070 93e42400 93062000 6ff05ffc 13050000  ..$... .o._.....
 1080 1307f00f b7074000 8320c102 03248102  ......@.. ...$..
 1090 93979700 13177701 93d79700 1315f501  ......w.........
 10a0 b3e7e700 83244102 03290102 8329c101  .....$A..)...)..
 10b0 032a8101 832a4101 032b0101 33e5a700  .*...*A..+..3...
 10c0 13010103 67800000 13070900 93890a00  ....g...........
 10d0 138b0600 93072000 6302fb0e 93073000  ...... .c.....0.
 10e0 e30efbf8 93071000 13050700 6314fb22  ............c.."
 10f0 13070000 93070000 6ff01ff9 639e0906  ........o...c...
 1100 13d77501 939a9500 1377f70f 93044000  ..u......w....@.
 1110 13040000 130b1000 93da9a00 13d9f501  ................
 1120 e31e07ee 63920a02 93e41400 93061000  ....c...........
 1130 6ff0dff0 639a0902 93048000 1304f00f  o...c...........
 1140 130b2000 6ff01fec 13850a00 eff00fa4  .. .o...........
 1150 9307b5ff 3304a440 b39afa00 1304a4f8  ....3..@........
 1160 93060000 6ff09fed 9304c000 1304f00f  ....o...........
 1170 130b3000 6ff01fe9 13850900 2326b100  ..0.o.......#&..
 1180 eff0cfa0 9307b5ff 1304a0f8 b399f900  ................
 1190 3304a440 93040000 130b0000 8325c100  3..@.........%..
 11a0 6ff05fe6 93e43400 93063000 6ff01fe9  o._...4...0.o...
 11b0 93072000 13070a00 e312fbf2 13050700  .. .............
 11c0 93070000 1307f00f 6ff01fec 37030100  ........o...7...
 11d0 9306f3ff 93d50901 93d80a01 b3f7d900  ................
 11e0 b3fada00 33885703 b389f802 13570801  ....3.W......W..
 11f0 b38a5503 b3895901 33073701 b3851503  ..U...Y.3.7.....
 1200 63745701 b3856500 b7070100 9387f7ff  ctW...e.........
 1210 b376f700 3378f800 93960601 b3860601  .v..3x..........
 1220 93996600 93570701 b3393001 93d6a601  ..f..W...90.....
 1230 b387b700 93976700 b3e6d900 b3e9d700  ......g.........
 1240 93974900 63da0700 13d71900 93f71900  ..I.c...........
 1250 b369f700 13040600 1307f407 6356e004  .i..........cV..
 1260 93f77900 638a0700 93f7f900 93064000  ..y.c.........@.
 1270 6384d700 93894900 93974900 63da0700  c.....I...I.c...
 1280 b70700f8 9387f7ff b3f9f900 13070408  ................
 1290 9307e00f 63cae706 93976900 93d79700  ....c.....i.....
 12a0 1377f70f 6ff05fde 93071000 b386e740  .w..o._........@
 12b0 630a0700 1306b001 13070000 93070000  c...............
 12c0 e344d6dc 1307e409 3397e900 3337e000  .D......3...37..
 12d0 b3d7d900 b3e7e700 13f77700 630a0700  ..........w.c...
 12e0 13f7f700 93064000 6304d700 93874700  ......@.c.....G.
 12f0 13975700 63440702 93976700 93d79700  ..W.cD....g.....
 1300 13070000 6ff05fd8 1307f00f 93070000  ....o._.........
 1310 6ff09fd7 13040600 6ff01ff4 13071000  o.......o.......
 1320 93070000 6ff05fd6 37078000 130101ff  ....o._.7.......
 1330 1307f7ff 93567501 13d87501 b377a700  .....Vu...u..w..
 1340 93f6f60f 935ef501 3376b700 23229100  .....^..3v..#"..
 1350 23202101 1378f80f 23261100 23248100  # !..x..#&..#$..
 1360 1303f00f 138e0700 13890600 93840e00  ................
 1370 139f3700 93d5f501 13153600 b3880641  ..7.......6....A
 1380 63006814 93c51500 638cbe14 635e100f  c.h.....c...c^..
 1390 631e0812 630a0524 9388f8ff b307af40  c...c..$.......@
 13a0 63880802 9307f00f 6384f61c 9307b001  c.......c.......
 13b0 63c21733 13070002 33071741 3317e500  c..3....3..A3...
 13c0 b3571501 3337e000 b3e7e700 b307ff40  .W..37.........@
 13d0 13975700 63540720 37040004 1304f4ff  ..W.cT. 7.......
 13e0 33f48700 13050400 efe05ffa 1305b5ff  3........._.....
 13f0 b317a400 63402523 33052541 13041500  ....c@%#3.%A....
 1400 13070002 33078740 3397e700 3337e000  ....3..@3...37..
 1410 b3d78700 b3e7e700 13090000 13f77700  ..............w.
 1420 630a0700 13f7f700 93064000 6304d700  c.........@.c...
 1430 93874700 13975700 6356071a 93061900  ..G...W.cV......
 1440 1307f00f 93fe1400 6380e61c 93976700  ........c.....g.
 1450 93d79700 93f6f60f 93979700 8320c100  ............. ..
 1460 03248100 13d59700 93967601 9397fe01  .$........v.....
 1470 3365d500 83244100 03290100 3365f500  3e...$A..)..3e..
 1480 13010101 67800000 6392080c 13871600  ....g...c.......
 1490 1377e70f 631e0718 639a062a 63000f28  .w..c...c..*c..(
 14a0 e30c05fa b307af40 13975700 6350072c  .......@..W.cP.,
 14b0 b307e541 13090000 93840500 6ff01ff6  ...A........o...
 14c0 e30205ec 638ebe0c e35010fd 9307f00f  ....c....P......
 14d0 6380f60a b7070004 3365f500 6ff01fed  c.......3e..o...
 14e0 6350100d 6300080a 9307f00f 6382f608  cP..c.......c...
 14f0 b7070004 3365f500 9307b001 63c01727  ....3e......c..'
 1500 13070002 33071741 3317e500 b3571501  ....3..A3....W..
 1510 3337e000 b3e7e700 b387e701 13975700  37............W.
 1520 635e070a 13091900 1307f00f 630ee90c  c^..........c...
 1530 b706007e 13d71700 9386f6ff 93f71700  ...~............
 1540 3377d700 b367f700 6ff05fed 3307d840  3w...g..o._.3..@
 1550 63920614 63060f1a 1307f7ff 63020722  c...c.......c.."
 1560 9307f00f 6310f814 93840500 130e0600  ....c...........
 1570 630a0e08 930e0000 9306f00f b7074000  c.............@.
 1580 6ff09fed 63020506 9388f8ff b307af00  o...c...........
 1590 e38608f8 9307f00f e390f6f6 6ff05ffd  ............o._.
 15a0 6398080a 13891600 1377e90f 63100718  c........w..c...
 15b0 63900616 630e0f1c e30005ea b307af00  c...c...........
 15c0 13975700 13090000 635a0700 370700fc  ..W.....cZ..7...
 15d0 1307f7ff b3f7e700 13091000 13f77700  ..............w.
 15e0 e31207e4 13de3700 9307f00f e302f9f8  ......7.........
 15f0 93179e00 93d79700 9376f90f 93fe1400  .........v......
 1600 6ff09fe5 93fe1400 9306f00f 93070000  o...............
 1610 6ff09fe4 370700fc 1307f7ff b3f7e700  o...7...........
 1620 13f77700 3309a940 e31e07de 6ff09ffb  ..w.3..@....o...
 1630 3304af40 93175400 63c40710 e31404da  3..@..T.c.......
 1640 930e0000 93060000 93070000 6ff0dfe0  ............o...
 1650 3307d840 63840608 9307f00f e308f8f0  3..@c...........
 1660 b7070004 336fff00 9307b001 63cce712  ....3o......c...
 1670 93070002 b387e740 b317ff00 3357ef00  .......@....3W..
 1680 b337f000 3367f700 b307a700 13090800  .7..3g..........
 1690 6ff0dfe8 9307f00f e308f8ec b7070004  o...............
 16a0 336fff00 9307b001 63cee70a 93070002  3o......c.......
 16b0 b387e740 b317ff00 3357ef00 b337f000  ...@....3W...7..
 16c0 b367f700 b307f540 13090800 93840500  .g.....@........
 16d0 6ff01fd0 93071000 6ff05fcf 630e0f0a  o.......o._.c...
 16e0 1307f7ff b307af00 13090800 e30807e2  ................
 16f0 9307f00f e31af8f6 130e0600 6ff05fe7  ............o._.
 1700 130e0600 13090800 93840500 6ff0dfed  ............o...
 1710 e30e0fe4 e30e05e4 6ff0dfe5 630c0504  ........o...c...
 1720 938e0500 93070600 6ff01fd3 9307f00f  ........o.......
 1730 e30cf9ec b307af00 93d71700 6ff01fea  ............o...
 1740 3304e541 93840500 6ff0dfc9 e3140ffc  3..A....o.......
 1750 e30205e2 93840500 6ff05fe1 93071000  ........o._.....
 1760 6ff09fdb 93071000 6ff0dff5 13090000  o.......o.......
 1770 e39607e6 930e0000 93070000 6ff0dfcd  ............o...
 1780 b307e541 13090800 93840500 6ff05fc4  ...A........o._.
 1790 93070600 6ff05fcc 130e0600 13090800  ....o._.........
 17a0 6ff09fe4 13071000 6ff01fee 7310457c  o.......o...s.E|
 17b0 7390557c 73d0707c 67800000 7310157c  s.U|s.p|g...s..|
 17c0 67800000 7310257c 67800000 732530fc  g...s.%|g...s%0.
 17d0 67800000 732520fc 67800000 1e0f4200  g...s% .g.....B.
 17e0 0e142800 071a1900 03231100 012f0900  ..(......#.../..
 17f0 03380600 04490400 05580200 07640000  .8...I...X...d..
 1800 14770600 2c8a0c00 3c9b1200 52b11800  .w..,...<...R...
 1810 64c02800 7dd13900 98db3900 b5e55f00  d.(.}.9...9..._.
 1820 b5ef8600 d0f8ac00 ecf8d300 eadbe200  ................
 1830 e9bff100 d88ff400 c95ff800 b92ffb00  ........._.../..
 1840 aa00ff00 9500e500 8000cc00 6b00b200  ............k...
 1850 57019900 46038100 34036a00 940a0000  W...F...4.j.....
 1860 68090000 880a0000 74090000 880a0000  h.......t.......
 1870 18090000 880a0000 74090000 68090000  ........t...h...
 1880 68090000 18090000 74090000 80090000  h.......t.......
 1890 80090000 80090000 18090000 68090000  ............h...
 18a0 68090000 880a0000 ac0b0000 880a0000  h...............
 18b0 18090000 880a0000 ac0b0000 68090000  ............h...
 18c0 68090000 18090000 ac0b0000 80090000  h...............
 18d0 80090000 80090000 18090000 cc110000  ................
 18e0 cc100000 cc100000 c8100000 d4100000  ................
 18f0 d4100000 7c100000 c8100000 d4100000  ....|...........
 1900 7c100000 d4100000 c8100000 b0110000  |...............
 1910 b0110000 b0110000 7c100000 9a9999bf  ........|.......
 1920 9e51f03d 0000803f c1ae42bf 000000c0  .Q.=...?..B.....
 1930 57e14bbf 00008043 0000803b 00007f43  W.K....C...;...C
 1940 00008040                             ...@            
Contents of section .riscv.attributes:
 0000 411e0000 00726973 63760001 14000000  A....riscv......
 0010 05727633 32693270 305f6d32 703000    .rv32i2p0_m2p0. 
Contents of section .comment:
 0000 4743433a 2028474e 55292038 2e332e30  GCC: (GNU) 8.3.0
 0010 00                                   .               

Disassembly of section .text:

00000000 <_start>:
       0:	00003137          	lui	sp,0x3
       4:	00010113          	mv	sp,sp
       8:	ffc10113          	addi	sp,sp,-4 # 2ffc <_stack_end+0x3fc>
       c:	008000ef          	jal	ra,14 <main>
      10:	00100073          	ebreak

00000014 <main>:
      14:	fe010113          	addi	sp,sp,-32
      18:	00112e23          	sw	ra,28(sp)
      1c:	00812c23          	sw	s0,24(sp)
      20:	00912a23          	sw	s1,20(sp)
      24:	01312623          	sw	s3,12(sp)
      28:	01212823          	sw	s2,16(sp)
      2c:	7a8010ef          	jal	ra,17d4 <get_switches>
      30:	00155413          	srli	s0,a0,0x1
      34:	00147413          	andi	s0,s0,1
      38:	06400793          	li	a5,100
      3c:	00140413          	addi	s0,s0,1
      40:	00000513          	li	a0,0
      44:	02f40433          	mul	s0,s0,a5
      48:	00000493          	li	s1,0
      4c:	778010ef          	jal	ra,17c4 <put_ssd>
      50:	06400993          	li	s3,100
      54:	00000513          	li	a0,0
      58:	058000ef          	jal	ra,b0 <fill>
      5c:	00048513          	mv	a0,s1
      60:	75c010ef          	jal	ra,17bc <put_leds>
      64:	c0102973          	rdtime	s2
      68:	00048513          	mv	a0,s1
      6c:	090000ef          	jal	ra,fc <mbrot>
      70:	c0102573          	rdtime	a0
      74:	03250513          	addi	a0,a0,50
      78:	41250533          	sub	a0,a0,s2
      7c:	02855533          	divu	a0,a0,s0
      80:	744010ef          	jal	ra,17c4 <put_ssd>
      84:	748010ef          	jal	ra,17cc <get_btns>
      88:	00857513          	andi	a0,a0,8
      8c:	fe050ce3          	beqz	a0,84 <main+0x70>
      90:	744010ef          	jal	ra,17d4 <get_switches>
      94:	00157493          	andi	s1,a0,1
      98:	73c010ef          	jal	ra,17d4 <get_switches>
      9c:	00155413          	srli	s0,a0,0x1
      a0:	00147413          	andi	s0,s0,1
      a4:	00140413          	addi	s0,s0,1
      a8:	03340433          	mul	s0,s0,s3
      ac:	fa9ff06f          	j	54 <main+0x40>

000000b0 <fill>:
      b0:	ff010113          	addi	sp,sp,-16
      b4:	00812423          	sw	s0,8(sp)
      b8:	00912223          	sw	s1,4(sp)
      bc:	01212023          	sw	s2,0(sp)
      c0:	00112623          	sw	ra,12(sp)
      c4:	00050913          	mv	s2,a0
      c8:	00000413          	li	s0,0
      cc:	000104b7          	lui	s1,0x10
      d0:	00040513          	mv	a0,s0
      d4:	00090593          	mv	a1,s2
      d8:	00140413          	addi	s0,s0,1
      dc:	6d0010ef          	jal	ra,17ac <putpix>
      e0:	fe9418e3          	bne	s0,s1,d0 <fill+0x20>
      e4:	00c12083          	lw	ra,12(sp)
      e8:	00812403          	lw	s0,8(sp)
      ec:	00412483          	lw	s1,4(sp)
      f0:	00012903          	lw	s2,0(sp)
      f4:	01010113          	addi	sp,sp,16
      f8:	00008067          	ret

000000fc <mbrot>:
      fc:	000026b7          	lui	a3,0x2
     100:	00251793          	slli	a5,a0,0x2
     104:	92c68693          	addi	a3,a3,-1748 # 192c <MinRe_tab>
     108:	00002737          	lui	a4,0x2
     10c:	fa010113          	addi	sp,sp,-96
     110:	00d786b3          	add	a3,a5,a3
     114:	92470713          	addi	a4,a4,-1756 # 1924 <MaxRe_tab>
     118:	03a12823          	sw	s10,48(sp)
     11c:	00e78733          	add	a4,a5,a4
     120:	0006ad03          	lw	s10,0(a3)
     124:	00072503          	lw	a0,0(a4)
     128:	00002737          	lui	a4,0x2
     12c:	91c70713          	addi	a4,a4,-1764 # 191c <MinIm_tab>
     130:	00e787b3          	add	a5,a5,a4
     134:	000d0593          	mv	a1,s10
     138:	04112e23          	sw	ra,92(sp)
     13c:	04812c23          	sw	s0,88(sp)
     140:	04912a23          	sw	s1,84(sp)
     144:	05212823          	sw	s2,80(sp)
     148:	0007a483          	lw	s1,0(a5)
     14c:	05312623          	sw	s3,76(sp)
     150:	05412423          	sw	s4,72(sp)
     154:	05512223          	sw	s5,68(sp)
     158:	05612023          	sw	s6,64(sp)
     15c:	03712e23          	sw	s7,60(sp)
     160:	03812c23          	sw	s8,56(sp)
     164:	03912a23          	sw	s9,52(sp)
     168:	03b12623          	sw	s11,44(sp)
     16c:	1bc010ef          	jal	ra,1328 <__subsf3>
     170:	000027b7          	lui	a5,0x2
     174:	9347a583          	lw	a1,-1740(a5) # 1934 <MinRe_tab+0x8>
     178:	00050913          	mv	s2,a0
     17c:	00002437          	lui	s0,0x2
     180:	629000ef          	jal	ra,fa8 <__mulsf3>
     184:	000027b7          	lui	a5,0x2
     188:	9387a583          	lw	a1,-1736(a5) # 1938 <MinRe_tab+0xc>
     18c:	61d000ef          	jal	ra,fa8 <__mulsf3>
     190:	00048593          	mv	a1,s1
     194:	238000ef          	jal	ra,3cc <__addsf3>
     198:	93c42583          	lw	a1,-1732(s0) # 193c <MinRe_tab+0x10>
     19c:	00050993          	mv	s3,a0
     1a0:	00a12823          	sw	a0,16(sp)
     1a4:	00090513          	mv	a0,s2
     1a8:	688000ef          	jal	ra,830 <__divsf3>
     1ac:	00a12223          	sw	a0,4(sp)
     1b0:	00048593          	mv	a1,s1
     1b4:	00098513          	mv	a0,s3
     1b8:	170010ef          	jal	ra,1328 <__subsf3>
     1bc:	93c42583          	lw	a1,-1732(s0)
     1c0:	670000ef          	jal	ra,830 <__divsf3>
     1c4:	00a12a23          	sw	a0,20(sp)
     1c8:	c0102473          	rdtime	s0
     1cc:	608010ef          	jal	ra,17d4 <get_switches>
     1d0:	00155793          	srli	a5,a0,0x1
     1d4:	0017f793          	andi	a5,a5,1
     1d8:	00178793          	addi	a5,a5,1
     1dc:	06400713          	li	a4,100
     1e0:	02e787b3          	mul	a5,a5,a4
     1e4:	00012623          	sw	zero,12(sp)
     1e8:	01e00b93          	li	s7,30
     1ec:	00f12c23          	sw	a5,24(sp)
     1f0:	000027b7          	lui	a5,0x2
     1f4:	9407ab03          	lw	s6,-1728(a5) # 1940 <MinRe_tab+0x14>
     1f8:	03200793          	li	a5,50
     1fc:	408787b3          	sub	a5,a5,s0
     200:	00f12e23          	sw	a5,28(sp)
     204:	000017b7          	lui	a5,0x1
     208:	7dc78793          	addi	a5,a5,2012 # 17dc <cmap>
     20c:	00f12423          	sw	a5,8(sp)
     210:	00c12403          	lw	s0,12(sp)
     214:	00000c13          	li	s8,0
     218:	00040513          	mv	a0,s0
     21c:	2e1000ef          	jal	ra,cfc <__floatunsisf>
     220:	01412583          	lw	a1,20(sp)
     224:	585000ef          	jal	ra,fa8 <__mulsf3>
     228:	00050593          	mv	a1,a0
     22c:	01012503          	lw	a0,16(sp)
     230:	0f8010ef          	jal	ra,1328 <__subsf3>
     234:	00841793          	slli	a5,s0,0x8
     238:	00050a93          	mv	s5,a0
     23c:	00f12023          	sw	a5,0(sp)
     240:	000c0513          	mv	a0,s8
     244:	2b9000ef          	jal	ra,cfc <__floatunsisf>
     248:	00412583          	lw	a1,4(sp)
     24c:	000a8413          	mv	s0,s5
     250:	00000493          	li	s1,0
     254:	555000ef          	jal	ra,fa8 <__mulsf3>
     258:	000d0593          	mv	a1,s10
     25c:	170000ef          	jal	ra,3cc <__addsf3>
     260:	00012783          	lw	a5,0(sp)
     264:	00050a13          	mv	s4,a0
     268:	00050d93          	mv	s11,a0
     26c:	01878cb3          	add	s9,a5,s8
     270:	0400006f          	j	2b0 <heap_size+0x1b0>
     274:	000d8513          	mv	a0,s11
     278:	154000ef          	jal	ra,3cc <__addsf3>
     27c:	00040593          	mv	a1,s0
     280:	529000ef          	jal	ra,fa8 <__mulsf3>
     284:	000a8593          	mv	a1,s5
     288:	144000ef          	jal	ra,3cc <__addsf3>
     28c:	00098593          	mv	a1,s3
     290:	00050413          	mv	s0,a0
     294:	00090513          	mv	a0,s2
     298:	090010ef          	jal	ra,1328 <__subsf3>
     29c:	000a0593          	mv	a1,s4
     2a0:	12c000ef          	jal	ra,3cc <__addsf3>
     2a4:	00148493          	addi	s1,s1,1 # 10001 <_stack_start+0xd001>
     2a8:	00050d93          	mv	s11,a0
     2ac:	0d748863          	beq	s1,s7,37c <heap_size+0x27c>
     2b0:	000d8593          	mv	a1,s11
     2b4:	000d8513          	mv	a0,s11
     2b8:	4f1000ef          	jal	ra,fa8 <__mulsf3>
     2bc:	00050913          	mv	s2,a0
     2c0:	00040593          	mv	a1,s0
     2c4:	00040513          	mv	a0,s0
     2c8:	4e1000ef          	jal	ra,fa8 <__mulsf3>
     2cc:	00050593          	mv	a1,a0
     2d0:	00050993          	mv	s3,a0
     2d4:	00090513          	mv	a0,s2
     2d8:	0f4000ef          	jal	ra,3cc <__addsf3>
     2dc:	000b0593          	mv	a1,s6
     2e0:	341000ef          	jal	ra,e20 <__gesf2>
     2e4:	000d8593          	mv	a1,s11
     2e8:	f8a056e3          	blez	a0,274 <heap_size+0x174>
     2ec:	00812783          	lw	a5,8(sp)
     2f0:	00249493          	slli	s1,s1,0x2
     2f4:	000c8513          	mv	a0,s9
     2f8:	009784b3          	add	s1,a5,s1
     2fc:	0004a583          	lw	a1,0(s1)
     300:	4ac010ef          	jal	ra,17ac <putpix>
     304:	001c0c13          	addi	s8,s8,1
     308:	10000793          	li	a5,256
     30c:	f2fc1ae3          	bne	s8,a5,240 <heap_size+0x140>
     310:	c0102573          	rdtime	a0
     314:	01c12783          	lw	a5,28(sp)
     318:	00f50533          	add	a0,a0,a5
     31c:	01812783          	lw	a5,24(sp)
     320:	02f55533          	divu	a0,a0,a5
     324:	00c12783          	lw	a5,12(sp)
     328:	00178793          	addi	a5,a5,1
     32c:	00078413          	mv	s0,a5
     330:	00f12623          	sw	a5,12(sp)
     334:	490010ef          	jal	ra,17c4 <put_ssd>
     338:	ed841ce3          	bne	s0,s8,210 <heap_size+0x110>
     33c:	05c12083          	lw	ra,92(sp)
     340:	05812403          	lw	s0,88(sp)
     344:	05412483          	lw	s1,84(sp)
     348:	05012903          	lw	s2,80(sp)
     34c:	04c12983          	lw	s3,76(sp)
     350:	04812a03          	lw	s4,72(sp)
     354:	04412a83          	lw	s5,68(sp)
     358:	04012b03          	lw	s6,64(sp)
     35c:	03c12b83          	lw	s7,60(sp)
     360:	03812c03          	lw	s8,56(sp)
     364:	03412c83          	lw	s9,52(sp)
     368:	03012d03          	lw	s10,48(sp)
     36c:	02c12d83          	lw	s11,44(sp)
     370:	00000513          	li	a0,0
     374:	06010113          	addi	sp,sp,96
     378:	00008067          	ret
     37c:	00000593          	li	a1,0
     380:	000c8513          	mv	a0,s9
     384:	428010ef          	jal	ra,17ac <putpix>
     388:	f7dff06f          	j	304 <heap_size+0x204>

0000038c <__clzsi2>:
     38c:	00500713          	li	a4,5
     390:	01000793          	li	a5,16
     394:	02000613          	li	a2,32
     398:	00100593          	li	a1,1
     39c:	40f556b3          	sra	a3,a0,a5
     3a0:	fff70713          	addi	a4,a4,-1
     3a4:	00068863          	beqz	a3,3b4 <__clzsi2+0x28>
     3a8:	00b78e63          	beq	a5,a1,3c4 <__clzsi2+0x38>
     3ac:	40f60633          	sub	a2,a2,a5
     3b0:	00068513          	mv	a0,a3
     3b4:	4017d793          	srai	a5,a5,0x1
     3b8:	fe0712e3          	bnez	a4,39c <__clzsi2+0x10>
     3bc:	40a60533          	sub	a0,a2,a0
     3c0:	00008067          	ret
     3c4:	ffe60513          	addi	a0,a2,-2
     3c8:	00008067          	ret

000003cc <__addsf3>:
     3cc:	ff010113          	addi	sp,sp,-16
     3d0:	00800737          	lui	a4,0x800
     3d4:	fff70713          	addi	a4,a4,-1 # 7fffff <_stack_start+0x7fcfff>
     3d8:	0175d813          	srli	a6,a1,0x17
     3dc:	00912223          	sw	s1,4(sp)
     3e0:	01755493          	srli	s1,a0,0x17
     3e4:	00a77333          	and	t1,a4,a0
     3e8:	0ff4f493          	andi	s1,s1,255
     3ec:	00b776b3          	and	a3,a4,a1
     3f0:	01212023          	sw	s2,0(sp)
     3f4:	0ff87813          	andi	a6,a6,255
     3f8:	01f55913          	srli	s2,a0,0x1f
     3fc:	00112623          	sw	ra,12(sp)
     400:	00812423          	sw	s0,8(sp)
     404:	01f5d593          	srli	a1,a1,0x1f
     408:	00030793          	mv	a5,t1
     40c:	00048513          	mv	a0,s1
     410:	00090613          	mv	a2,s2
     414:	00331e13          	slli	t3,t1,0x3
     418:	00369e93          	slli	t4,a3,0x3
     41c:	410488b3          	sub	a7,s1,a6
     420:	12b90663          	beq	s2,a1,54c <stack_size+0x14c>
     424:	0f105a63          	blez	a7,518 <stack_size+0x118>
     428:	18080863          	beqz	a6,5b8 <stack_size+0x1b8>
     42c:	0ff00793          	li	a5,255
     430:	1af48063          	beq	s1,a5,5d0 <stack_size+0x1d0>
     434:	040007b7          	lui	a5,0x4000
     438:	00feeeb3          	or	t4,t4,a5
     43c:	01b00793          	li	a5,27
     440:	3117ce63          	blt	a5,a7,75c <stack_size+0x35c>
     444:	02000793          	li	a5,32
     448:	411787b3          	sub	a5,a5,a7
     44c:	00fe97b3          	sll	a5,t4,a5
     450:	011ed8b3          	srl	a7,t4,a7
     454:	00f037b3          	snez	a5,a5
     458:	00f8e7b3          	or	a5,a7,a5
     45c:	40fe07b3          	sub	a5,t3,a5
     460:	00579713          	slli	a4,a5,0x5
     464:	20075063          	bgez	a4,664 <stack_size+0x264>
     468:	04000437          	lui	s0,0x4000
     46c:	fff40413          	addi	s0,s0,-1 # 3ffffff <_stack_start+0x3ffcfff>
     470:	0087f433          	and	s0,a5,s0
     474:	00040513          	mv	a0,s0
     478:	f15ff0ef          	jal	ra,38c <__clzsi2>
     47c:	ffb50513          	addi	a0,a0,-5
     480:	00a417b3          	sll	a5,s0,a0
     484:	20954c63          	blt	a0,s1,69c <stack_size+0x29c>
     488:	40950533          	sub	a0,a0,s1
     48c:	00150413          	addi	s0,a0,1
     490:	02000713          	li	a4,32
     494:	40870733          	sub	a4,a4,s0
     498:	00e79733          	sll	a4,a5,a4
     49c:	00e03733          	snez	a4,a4
     4a0:	0087d7b3          	srl	a5,a5,s0
     4a4:	00e7e7b3          	or	a5,a5,a4
     4a8:	00000493          	li	s1,0
     4ac:	0077f713          	andi	a4,a5,7
     4b0:	00070a63          	beqz	a4,4c4 <stack_size+0xc4>
     4b4:	00f7f713          	andi	a4,a5,15
     4b8:	00400693          	li	a3,4
     4bc:	00d70463          	beq	a4,a3,4c4 <stack_size+0xc4>
     4c0:	00478793          	addi	a5,a5,4 # 4000004 <_stack_start+0x3ffd004>
     4c4:	00579713          	slli	a4,a5,0x5
     4c8:	1a075263          	bgez	a4,66c <stack_size+0x26c>
     4cc:	00148493          	addi	s1,s1,1
     4d0:	0ff00713          	li	a4,255
     4d4:	00090613          	mv	a2,s2
     4d8:	1ae48c63          	beq	s1,a4,690 <stack_size+0x290>
     4dc:	00679793          	slli	a5,a5,0x6
     4e0:	0097d793          	srli	a5,a5,0x9
     4e4:	0ff4f513          	andi	a0,s1,255
     4e8:	00c12083          	lw	ra,12(sp)
     4ec:	00812403          	lw	s0,8(sp)
     4f0:	00979793          	slli	a5,a5,0x9
     4f4:	01751493          	slli	s1,a0,0x17
     4f8:	0097d513          	srli	a0,a5,0x9
     4fc:	00956533          	or	a0,a0,s1
     500:	01f61613          	slli	a2,a2,0x1f
     504:	00412483          	lw	s1,4(sp)
     508:	00012903          	lw	s2,0(sp)
     50c:	00c56533          	or	a0,a0,a2
     510:	01010113          	addi	sp,sp,16
     514:	00008067          	ret
     518:	0c089663          	bnez	a7,5e4 <stack_size+0x1e4>
     51c:	00148713          	addi	a4,s1,1
     520:	0fe77713          	andi	a4,a4,254
     524:	18071a63          	bnez	a4,6b8 <stack_size+0x2b8>
     528:	2a049663          	bnez	s1,7d4 <stack_size+0x3d4>
     52c:	260e0c63          	beqz	t3,7a4 <stack_size+0x3a4>
     530:	fa0e8ce3          	beqz	t4,4e8 <stack_size+0xe8>
     534:	41de07b3          	sub	a5,t3,t4
     538:	00579713          	slli	a4,a5,0x5
     53c:	2a075c63          	bgez	a4,7f4 <stack_size+0x3f4>
     540:	41ce87b3          	sub	a5,t4,t3
     544:	00058913          	mv	s2,a1
     548:	f65ff06f          	j	4ac <stack_size+0xac>
     54c:	0d105e63          	blez	a7,628 <stack_size+0x228>
     550:	0a080e63          	beqz	a6,60c <stack_size+0x20c>
     554:	0ff00793          	li	a5,255
     558:	06f48c63          	beq	s1,a5,5d0 <stack_size+0x1d0>
     55c:	040007b7          	lui	a5,0x4000
     560:	00feeeb3          	or	t4,t4,a5
     564:	01b00793          	li	a5,27
     568:	2717ce63          	blt	a5,a7,7e4 <stack_size+0x3e4>
     56c:	02000793          	li	a5,32
     570:	411787b3          	sub	a5,a5,a7
     574:	00fe97b3          	sll	a5,t4,a5
     578:	011ed8b3          	srl	a7,t4,a7
     57c:	00f037b3          	snez	a5,a5
     580:	00f8e7b3          	or	a5,a7,a5
     584:	01c787b3          	add	a5,a5,t3
     588:	00579713          	slli	a4,a5,0x5
     58c:	0c075c63          	bgez	a4,664 <stack_size+0x264>
     590:	00148493          	addi	s1,s1,1
     594:	0ff00713          	li	a4,255
     598:	0ee48c63          	beq	s1,a4,690 <stack_size+0x290>
     59c:	7e0006b7          	lui	a3,0x7e000
     5a0:	0017d713          	srli	a4,a5,0x1
     5a4:	fff68693          	addi	a3,a3,-1 # 7dffffff <_stack_start+0x7dffcfff>
     5a8:	0017f793          	andi	a5,a5,1
     5ac:	00d77733          	and	a4,a4,a3
     5b0:	00f767b3          	or	a5,a4,a5
     5b4:	ef9ff06f          	j	4ac <stack_size+0xac>
     5b8:	0a0e8c63          	beqz	t4,670 <stack_size+0x270>
     5bc:	fff88893          	addi	a7,a7,-1
     5c0:	41de07b3          	sub	a5,t3,t4
     5c4:	e8088ee3          	beqz	a7,460 <stack_size+0x60>
     5c8:	0ff00793          	li	a5,255
     5cc:	e6f498e3          	bne	s1,a5,43c <stack_size+0x3c>
     5d0:	0a030e63          	beqz	t1,68c <stack_size+0x28c>
     5d4:	00000613          	li	a2,0
     5d8:	0ff00513          	li	a0,255
     5dc:	004007b7          	lui	a5,0x400
     5e0:	f09ff06f          	j	4e8 <stack_size+0xe8>
     5e4:	40980733          	sub	a4,a6,s1
     5e8:	12049a63          	bnez	s1,71c <stack_size+0x31c>
     5ec:	180e0e63          	beqz	t3,788 <stack_size+0x388>
     5f0:	fff70713          	addi	a4,a4,-1
     5f4:	20070863          	beqz	a4,804 <stack_size+0x404>
     5f8:	0ff00793          	li	a5,255
     5fc:	12f81863          	bne	a6,a5,72c <stack_size+0x32c>
     600:	00058913          	mv	s2,a1
     604:	00068313          	mv	t1,a3
     608:	fc9ff06f          	j	5d0 <stack_size+0x1d0>
     60c:	060e8263          	beqz	t4,670 <stack_size+0x270>
     610:	fff88893          	addi	a7,a7,-1
     614:	01de07b3          	add	a5,t3,t4
     618:	f60888e3          	beqz	a7,588 <stack_size+0x188>
     61c:	0ff00793          	li	a5,255
     620:	f4f492e3          	bne	s1,a5,564 <stack_size+0x164>
     624:	fadff06f          	j	5d0 <stack_size+0x1d0>
     628:	0a089863          	bnez	a7,6d8 <stack_size+0x2d8>
     62c:	00148493          	addi	s1,s1,1
     630:	0fe4f713          	andi	a4,s1,254
     634:	18071063          	bnez	a4,7b4 <stack_size+0x3b4>
     638:	16051063          	bnez	a0,798 <stack_size+0x398>
     63c:	1c0e0c63          	beqz	t3,814 <stack_size+0x414>
     640:	ea0e84e3          	beqz	t4,4e8 <stack_size+0xe8>
     644:	01de07b3          	add	a5,t3,t4
     648:	00579713          	slli	a4,a5,0x5
     64c:	00000493          	li	s1,0
     650:	00075a63          	bgez	a4,664 <stack_size+0x264>
     654:	fc000737          	lui	a4,0xfc000
     658:	fff70713          	addi	a4,a4,-1 # fbffffff <_stack_start+0xfbffcfff>
     65c:	00e7f7b3          	and	a5,a5,a4
     660:	00100493          	li	s1,1
     664:	0077f713          	andi	a4,a5,7
     668:	e40716e3          	bnez	a4,4b4 <stack_size+0xb4>
     66c:	0037d313          	srli	t1,a5,0x3
     670:	0ff00793          	li	a5,255
     674:	f4f48ee3          	beq	s1,a5,5d0 <stack_size+0x1d0>
     678:	00931793          	slli	a5,t1,0x9
     67c:	0097d793          	srli	a5,a5,0x9
     680:	0ff4f513          	andi	a0,s1,255
     684:	00090613          	mv	a2,s2
     688:	e61ff06f          	j	4e8 <stack_size+0xe8>
     68c:	00090613          	mv	a2,s2
     690:	0ff00513          	li	a0,255
     694:	00000793          	li	a5,0
     698:	e51ff06f          	j	4e8 <stack_size+0xe8>
     69c:	fc000737          	lui	a4,0xfc000
     6a0:	fff70713          	addi	a4,a4,-1 # fbffffff <_stack_start+0xfbffcfff>
     6a4:	00e7f7b3          	and	a5,a5,a4
     6a8:	0077f713          	andi	a4,a5,7
     6ac:	40a484b3          	sub	s1,s1,a0
     6b0:	e00712e3          	bnez	a4,4b4 <stack_size+0xb4>
     6b4:	fb9ff06f          	j	66c <stack_size+0x26c>
     6b8:	41de0433          	sub	s0,t3,t4
     6bc:	00541793          	slli	a5,s0,0x5
     6c0:	1007c463          	bltz	a5,7c8 <stack_size+0x3c8>
     6c4:	da0418e3          	bnez	s0,474 <stack_size+0x74>
     6c8:	00000613          	li	a2,0
     6cc:	00000513          	li	a0,0
     6d0:	00000793          	li	a5,0
     6d4:	e15ff06f          	j	4e8 <stack_size+0xe8>
     6d8:	40980733          	sub	a4,a6,s1
     6dc:	08048463          	beqz	s1,764 <stack_size+0x364>
     6e0:	0ff00793          	li	a5,255
     6e4:	f2f800e3          	beq	a6,a5,604 <stack_size+0x204>
     6e8:	040007b7          	lui	a5,0x4000
     6ec:	00fe6e33          	or	t3,t3,a5
     6f0:	01b00793          	li	a5,27
     6f4:	12e7ca63          	blt	a5,a4,828 <stack_size+0x428>
     6f8:	02000793          	li	a5,32
     6fc:	40e787b3          	sub	a5,a5,a4
     700:	00fe17b3          	sll	a5,t3,a5
     704:	00ee5733          	srl	a4,t3,a4
     708:	00f037b3          	snez	a5,a5
     70c:	00f767b3          	or	a5,a4,a5
     710:	01d787b3          	add	a5,a5,t4
     714:	00080493          	mv	s1,a6
     718:	e71ff06f          	j	588 <stack_size+0x188>
     71c:	0ff00793          	li	a5,255
     720:	eef800e3          	beq	a6,a5,600 <stack_size+0x200>
     724:	040007b7          	lui	a5,0x4000
     728:	00fe6e33          	or	t3,t3,a5
     72c:	01b00793          	li	a5,27
     730:	0ae7ce63          	blt	a5,a4,7ec <stack_size+0x3ec>
     734:	02000693          	li	a3,32
     738:	40e686b3          	sub	a3,a3,a4
     73c:	00de16b3          	sll	a3,t3,a3
     740:	00ee57b3          	srl	a5,t3,a4
     744:	00d03733          	snez	a4,a3
     748:	00e7e7b3          	or	a5,a5,a4
     74c:	40fe87b3          	sub	a5,t4,a5
     750:	00080493          	mv	s1,a6
     754:	00058913          	mv	s2,a1
     758:	d09ff06f          	j	460 <stack_size+0x60>
     75c:	00100793          	li	a5,1
     760:	cfdff06f          	j	45c <stack_size+0x5c>
     764:	0a0e0c63          	beqz	t3,81c <stack_size+0x41c>
     768:	fff70713          	addi	a4,a4,-1
     76c:	01de07b3          	add	a5,t3,t4
     770:	00080493          	mv	s1,a6
     774:	e0070ae3          	beqz	a4,588 <stack_size+0x188>
     778:	0ff00793          	li	a5,255
     77c:	f6f81ae3          	bne	a6,a5,6f0 <stack_size+0x2f0>
     780:	00068313          	mv	t1,a3
     784:	e4dff06f          	j	5d0 <stack_size+0x1d0>
     788:	00068313          	mv	t1,a3
     78c:	00080493          	mv	s1,a6
     790:	00058913          	mv	s2,a1
     794:	eddff06f          	j	670 <stack_size+0x270>
     798:	e60e06e3          	beqz	t3,604 <stack_size+0x204>
     79c:	e20e8ae3          	beqz	t4,5d0 <stack_size+0x1d0>
     7a0:	e35ff06f          	j	5d4 <stack_size+0x1d4>
     7a4:	040e8a63          	beqz	t4,7f8 <stack_size+0x3f8>
     7a8:	00058613          	mv	a2,a1
     7ac:	00068793          	mv	a5,a3
     7b0:	d39ff06f          	j	4e8 <stack_size+0xe8>
     7b4:	0ff00793          	li	a5,255
     7b8:	ecf48ce3          	beq	s1,a5,690 <stack_size+0x290>
     7bc:	01de07b3          	add	a5,t3,t4
     7c0:	0017d793          	srli	a5,a5,0x1
     7c4:	ea1ff06f          	j	664 <stack_size+0x264>
     7c8:	41ce8433          	sub	s0,t4,t3
     7cc:	00058913          	mv	s2,a1
     7d0:	ca5ff06f          	j	474 <stack_size+0x74>
     7d4:	fc0e14e3          	bnez	t3,79c <stack_size+0x39c>
     7d8:	de0e8ee3          	beqz	t4,5d4 <stack_size+0x1d4>
     7dc:	00058913          	mv	s2,a1
     7e0:	e25ff06f          	j	604 <stack_size+0x204>
     7e4:	00100793          	li	a5,1
     7e8:	d9dff06f          	j	584 <stack_size+0x184>
     7ec:	00100793          	li	a5,1
     7f0:	f5dff06f          	j	74c <stack_size+0x34c>
     7f4:	e60798e3          	bnez	a5,664 <stack_size+0x264>
     7f8:	00000613          	li	a2,0
     7fc:	00000793          	li	a5,0
     800:	ce9ff06f          	j	4e8 <stack_size+0xe8>
     804:	41ce87b3          	sub	a5,t4,t3
     808:	00080493          	mv	s1,a6
     80c:	00058913          	mv	s2,a1
     810:	c51ff06f          	j	460 <stack_size+0x60>
     814:	00068793          	mv	a5,a3
     818:	cd1ff06f          	j	4e8 <stack_size+0xe8>
     81c:	00068313          	mv	t1,a3
     820:	00080493          	mv	s1,a6
     824:	e4dff06f          	j	670 <stack_size+0x270>
     828:	00100793          	li	a5,1
     82c:	ee5ff06f          	j	710 <stack_size+0x310>

00000830 <__divsf3>:
     830:	fc010113          	addi	sp,sp,-64
     834:	01755793          	srli	a5,a0,0x17
     838:	03212823          	sw	s2,48(sp)
     83c:	03512223          	sw	s5,36(sp)
     840:	01712e23          	sw	s7,28(sp)
     844:	00951a93          	slli	s5,a0,0x9
     848:	01f55913          	srli	s2,a0,0x1f
     84c:	02112e23          	sw	ra,60(sp)
     850:	02812c23          	sw	s0,56(sp)
     854:	02912a23          	sw	s1,52(sp)
     858:	03312623          	sw	s3,44(sp)
     85c:	03412423          	sw	s4,40(sp)
     860:	03612023          	sw	s6,32(sp)
     864:	0ff7f793          	andi	a5,a5,255
     868:	009ada93          	srli	s5,s5,0x9
     86c:	00090b93          	mv	s7,s2
     870:	18078463          	beqz	a5,9f8 <__divsf3+0x1c8>
     874:	0ff00713          	li	a4,255
     878:	18e78a63          	beq	a5,a4,a0c <__divsf3+0x1dc>
     87c:	003a9a93          	slli	s5,s5,0x3
     880:	04000737          	lui	a4,0x4000
     884:	00eaeab3          	or	s5,s5,a4
     888:	f8178a13          	addi	s4,a5,-127 # 3ffff81 <_stack_start+0x3ffcf81>
     88c:	00000413          	li	s0,0
     890:	00000b13          	li	s6,0
     894:	0175d793          	srli	a5,a1,0x17
     898:	00959493          	slli	s1,a1,0x9
     89c:	0ff7f793          	andi	a5,a5,255
     8a0:	0094d493          	srli	s1,s1,0x9
     8a4:	01f5d993          	srli	s3,a1,0x1f
     8a8:	14078263          	beqz	a5,9ec <__divsf3+0x1bc>
     8ac:	0ff00713          	li	a4,255
     8b0:	02e78e63          	beq	a5,a4,8ec <__divsf3+0xbc>
     8b4:	04000737          	lui	a4,0x4000
     8b8:	00349493          	slli	s1,s1,0x3
     8bc:	f8178793          	addi	a5,a5,-127
     8c0:	00e4e4b3          	or	s1,s1,a4
     8c4:	40fa0a33          	sub	s4,s4,a5
     8c8:	00000713          	li	a4,0
     8cc:	00876433          	or	s0,a4,s0
     8d0:	000027b7          	lui	a5,0x2
     8d4:	85c78793          	addi	a5,a5,-1956 # 185c <cmap+0x80>
     8d8:	00241413          	slli	s0,s0,0x2
     8dc:	00f40433          	add	s0,s0,a5
     8e0:	00042783          	lw	a5,0(s0)
     8e4:	01394933          	xor	s2,s2,s3
     8e8:	00078067          	jr	a5
     8ec:	f01a0a13          	addi	s4,s4,-255
     8f0:	12049863          	bnez	s1,a20 <__divsf3+0x1f0>
     8f4:	00200713          	li	a4,2
     8f8:	00876433          	or	s0,a4,s0
     8fc:	000027b7          	lui	a5,0x2
     900:	89c78793          	addi	a5,a5,-1892 # 189c <cmap+0xc0>
     904:	00241413          	slli	s0,s0,0x2
     908:	00f40433          	add	s0,s0,a5
     90c:	00042783          	lw	a5,0(s0)
     910:	01394933          	xor	s2,s2,s3
     914:	00078067          	jr	a5
     918:	00000913          	li	s2,0
     91c:	0ff00713          	li	a4,255
     920:	004007b7          	lui	a5,0x400
     924:	00979513          	slli	a0,a5,0x9
     928:	03c12083          	lw	ra,60(sp)
     92c:	03812403          	lw	s0,56(sp)
     930:	01771793          	slli	a5,a4,0x17
     934:	00955513          	srli	a0,a0,0x9
     938:	01f91913          	slli	s2,s2,0x1f
     93c:	00f56533          	or	a0,a0,a5
     940:	01256533          	or	a0,a0,s2
     944:	03412483          	lw	s1,52(sp)
     948:	03012903          	lw	s2,48(sp)
     94c:	02c12983          	lw	s3,44(sp)
     950:	02812a03          	lw	s4,40(sp)
     954:	02412a83          	lw	s5,36(sp)
     958:	02012b03          	lw	s6,32(sp)
     95c:	01c12b83          	lw	s7,28(sp)
     960:	04010113          	addi	sp,sp,64
     964:	00008067          	ret
     968:	0ff00713          	li	a4,255
     96c:	00000793          	li	a5,0
     970:	fb5ff06f          	j	924 <__divsf3+0xf4>
     974:	00048a93          	mv	s5,s1
     978:	00098b93          	mv	s7,s3
     97c:	00070b13          	mv	s6,a4
     980:	00200793          	li	a5,2
     984:	24fb0a63          	beq	s6,a5,bd8 <__divsf3+0x3a8>
     988:	00300793          	li	a5,3
     98c:	f8fb06e3          	beq	s6,a5,918 <__divsf3+0xe8>
     990:	00100793          	li	a5,1
     994:	0efb0863          	beq	s6,a5,a84 <__divsf3+0x254>
     998:	07fa0713          	addi	a4,s4,127
     99c:	001bf913          	andi	s2,s7,1
     9a0:	18e05a63          	blez	a4,b34 <__divsf3+0x304>
     9a4:	007af793          	andi	a5,s5,7
     9a8:	00078a63          	beqz	a5,9bc <__divsf3+0x18c>
     9ac:	00faf793          	andi	a5,s5,15
     9b0:	00400693          	li	a3,4
     9b4:	00d78463          	beq	a5,a3,9bc <__divsf3+0x18c>
     9b8:	004a8a93          	addi	s5,s5,4
     9bc:	004a9793          	slli	a5,s5,0x4
     9c0:	0007da63          	bgez	a5,9d4 <__divsf3+0x1a4>
     9c4:	f80007b7          	lui	a5,0xf8000
     9c8:	fff78793          	addi	a5,a5,-1 # f7ffffff <_stack_start+0xf7ffcfff>
     9cc:	00fafab3          	and	s5,s5,a5
     9d0:	080a0713          	addi	a4,s4,128
     9d4:	0fe00793          	li	a5,254
     9d8:	f8e7c8e3          	blt	a5,a4,968 <__divsf3+0x138>
     9dc:	006a9793          	slli	a5,s5,0x6
     9e0:	0097d793          	srli	a5,a5,0x9
     9e4:	0ff77713          	andi	a4,a4,255
     9e8:	f3dff06f          	j	924 <__divsf3+0xf4>
     9ec:	06049c63          	bnez	s1,a64 <__divsf3+0x234>
     9f0:	00100713          	li	a4,1
     9f4:	f05ff06f          	j	8f8 <__divsf3+0xc8>
     9f8:	040a9063          	bnez	s5,a38 <__divsf3+0x208>
     9fc:	00400413          	li	s0,4
     a00:	00000a13          	li	s4,0
     a04:	00100b13          	li	s6,1
     a08:	e8dff06f          	j	894 <__divsf3+0x64>
     a0c:	000a9e63          	bnez	s5,a28 <__divsf3+0x1f8>
     a10:	00800413          	li	s0,8
     a14:	0ff00a13          	li	s4,255
     a18:	00200b13          	li	s6,2
     a1c:	e79ff06f          	j	894 <__divsf3+0x64>
     a20:	00300713          	li	a4,3
     a24:	ea9ff06f          	j	8cc <__divsf3+0x9c>
     a28:	00c00413          	li	s0,12
     a2c:	0ff00a13          	li	s4,255
     a30:	00300b13          	li	s6,3
     a34:	e61ff06f          	j	894 <__divsf3+0x64>
     a38:	000a8513          	mv	a0,s5
     a3c:	00b12623          	sw	a1,12(sp)
     a40:	94dff0ef          	jal	ra,38c <__clzsi2>
     a44:	ffb50793          	addi	a5,a0,-5
     a48:	00fa9ab3          	sll	s5,s5,a5
     a4c:	f8a00793          	li	a5,-118
     a50:	40a78a33          	sub	s4,a5,a0
     a54:	00000413          	li	s0,0
     a58:	00000b13          	li	s6,0
     a5c:	00c12583          	lw	a1,12(sp)
     a60:	e35ff06f          	j	894 <__divsf3+0x64>
     a64:	00048513          	mv	a0,s1
     a68:	925ff0ef          	jal	ra,38c <__clzsi2>
     a6c:	ffb50713          	addi	a4,a0,-5
     a70:	00aa07b3          	add	a5,s4,a0
     a74:	00e494b3          	sll	s1,s1,a4
     a78:	07678a13          	addi	s4,a5,118
     a7c:	00000713          	li	a4,0
     a80:	e4dff06f          	j	8cc <__divsf3+0x9c>
     a84:	001bf913          	andi	s2,s7,1
     a88:	00000713          	li	a4,0
     a8c:	00000793          	li	a5,0
     a90:	e95ff06f          	j	924 <__divsf3+0xf4>
     a94:	00010637          	lui	a2,0x10
     a98:	00549513          	slli	a0,s1,0x5
     a9c:	fff60613          	addi	a2,a2,-1 # ffff <_stack_start+0xcfff>
     aa0:	01055793          	srli	a5,a0,0x10
     aa4:	00c57633          	and	a2,a0,a2
     aa8:	0e9af663          	bgeu	s5,s1,b94 <__divsf3+0x364>
     aac:	02fad5b3          	divu	a1,s5,a5
     ab0:	fffa0a13          	addi	s4,s4,-1
     ab4:	000a8693          	mv	a3,s5
     ab8:	00000713          	li	a4,0
     abc:	02c58833          	mul	a6,a1,a2
     ac0:	02f6f6b3          	remu	a3,a3,a5
     ac4:	01069693          	slli	a3,a3,0x10
     ac8:	00e6e733          	or	a4,a3,a4
     acc:	01077e63          	bgeu	a4,a6,ae8 <__divsf3+0x2b8>
     ad0:	00a70733          	add	a4,a4,a0
     ad4:	fff58693          	addi	a3,a1,-1
     ad8:	0ea76663          	bltu	a4,a0,bc4 <__divsf3+0x394>
     adc:	0f077463          	bgeu	a4,a6,bc4 <__divsf3+0x394>
     ae0:	ffe58593          	addi	a1,a1,-2
     ae4:	00a70733          	add	a4,a4,a0
     ae8:	41070733          	sub	a4,a4,a6
     aec:	02f756b3          	divu	a3,a4,a5
     af0:	02f77733          	remu	a4,a4,a5
     af4:	02c68ab3          	mul	s5,a3,a2
     af8:	01071793          	slli	a5,a4,0x10
     afc:	0157fe63          	bgeu	a5,s5,b18 <__divsf3+0x2e8>
     b00:	00a787b3          	add	a5,a5,a0
     b04:	fff68713          	addi	a4,a3,-1
     b08:	0aa7ea63          	bltu	a5,a0,bbc <__divsf3+0x38c>
     b0c:	0b57f863          	bgeu	a5,s5,bbc <__divsf3+0x38c>
     b10:	ffe68693          	addi	a3,a3,-2
     b14:	00a787b3          	add	a5,a5,a0
     b18:	01059593          	slli	a1,a1,0x10
     b1c:	41578ab3          	sub	s5,a5,s5
     b20:	00d5e5b3          	or	a1,a1,a3
     b24:	01503ab3          	snez	s5,s5
     b28:	0155eab3          	or	s5,a1,s5
     b2c:	00090b93          	mv	s7,s2
     b30:	e69ff06f          	j	998 <__divsf3+0x168>
     b34:	00100693          	li	a3,1
     b38:	40e686b3          	sub	a3,a3,a4
     b3c:	00070a63          	beqz	a4,b50 <__divsf3+0x320>
     b40:	01b00613          	li	a2,27
     b44:	00000713          	li	a4,0
     b48:	00000793          	li	a5,0
     b4c:	dcd64ce3          	blt	a2,a3,924 <__divsf3+0xf4>
     b50:	09ea0a13          	addi	s4,s4,158
     b54:	014a9a33          	sll	s4,s5,s4
     b58:	00dad7b3          	srl	a5,s5,a3
     b5c:	01403ab3          	snez	s5,s4
     b60:	0157e7b3          	or	a5,a5,s5
     b64:	0077f713          	andi	a4,a5,7
     b68:	00070a63          	beqz	a4,b7c <__divsf3+0x34c>
     b6c:	00f7f713          	andi	a4,a5,15
     b70:	00400693          	li	a3,4
     b74:	00d70463          	beq	a4,a3,b7c <__divsf3+0x34c>
     b78:	00478793          	addi	a5,a5,4
     b7c:	00579713          	slli	a4,a5,0x5
     b80:	04074663          	bltz	a4,bcc <__divsf3+0x39c>
     b84:	00679793          	slli	a5,a5,0x6
     b88:	0097d793          	srli	a5,a5,0x9
     b8c:	00000713          	li	a4,0
     b90:	d95ff06f          	j	924 <__divsf3+0xf4>
     b94:	001ad693          	srli	a3,s5,0x1
     b98:	02f6d5b3          	divu	a1,a3,a5
     b9c:	01fa9713          	slli	a4,s5,0x1f
     ba0:	01075713          	srli	a4,a4,0x10
     ba4:	02c58833          	mul	a6,a1,a2
     ba8:	f19ff06f          	j	ac0 <__divsf3+0x290>
     bac:	00098b93          	mv	s7,s3
     bb0:	00070b13          	mv	s6,a4
     bb4:	00000a93          	li	s5,0
     bb8:	dc9ff06f          	j	980 <__divsf3+0x150>
     bbc:	00070693          	mv	a3,a4
     bc0:	f59ff06f          	j	b18 <__divsf3+0x2e8>
     bc4:	00068593          	mv	a1,a3
     bc8:	f21ff06f          	j	ae8 <__divsf3+0x2b8>
     bcc:	00100713          	li	a4,1
     bd0:	00000793          	li	a5,0
     bd4:	d51ff06f          	j	924 <__divsf3+0xf4>
     bd8:	001bf913          	andi	s2,s7,1
     bdc:	0ff00713          	li	a4,255
     be0:	00000793          	li	a5,0
     be4:	d41ff06f          	j	924 <__divsf3+0xf4>

00000be8 <__floatsisf>:
     be8:	ff010113          	addi	sp,sp,-16
     bec:	00112623          	sw	ra,12(sp)
     bf0:	00812423          	sw	s0,8(sp)
     bf4:	00912223          	sw	s1,4(sp)
     bf8:	04050863          	beqz	a0,c48 <__floatsisf+0x60>
     bfc:	41f55793          	srai	a5,a0,0x1f
     c00:	00a7c433          	xor	s0,a5,a0
     c04:	40f40433          	sub	s0,s0,a5
     c08:	00050493          	mv	s1,a0
     c0c:	00040513          	mv	a0,s0
     c10:	f7cff0ef          	jal	ra,38c <__clzsi2>
     c14:	09e00793          	li	a5,158
     c18:	40a78733          	sub	a4,a5,a0
     c1c:	09600793          	li	a5,150
     c20:	01f4d493          	srli	s1,s1,0x1f
     c24:	04e7ce63          	blt	a5,a4,c80 <__floatsisf+0x98>
     c28:	00800693          	li	a3,8
     c2c:	0ff77793          	andi	a5,a4,255
     c30:	00a6d663          	bge	a3,a0,c3c <__floatsisf+0x54>
     c34:	ff850513          	addi	a0,a0,-8
     c38:	00a41433          	sll	s0,s0,a0
     c3c:	00941413          	slli	s0,s0,0x9
     c40:	00945413          	srli	s0,s0,0x9
     c44:	0100006f          	j	c54 <__floatsisf+0x6c>
     c48:	00000493          	li	s1,0
     c4c:	00000793          	li	a5,0
     c50:	00000413          	li	s0,0
     c54:	00941413          	slli	s0,s0,0x9
     c58:	00945513          	srli	a0,s0,0x9
     c5c:	00c12083          	lw	ra,12(sp)
     c60:	00812403          	lw	s0,8(sp)
     c64:	01779793          	slli	a5,a5,0x17
     c68:	01f49493          	slli	s1,s1,0x1f
     c6c:	00f56533          	or	a0,a0,a5
     c70:	00956533          	or	a0,a0,s1
     c74:	00412483          	lw	s1,4(sp)
     c78:	01010113          	addi	sp,sp,16
     c7c:	00008067          	ret
     c80:	09900793          	li	a5,153
     c84:	02e7d063          	bge	a5,a4,ca4 <__floatsisf+0xbc>
     c88:	01b50793          	addi	a5,a0,27
     c8c:	00500693          	li	a3,5
     c90:	00f417b3          	sll	a5,s0,a5
     c94:	40a686b3          	sub	a3,a3,a0
     c98:	00d45433          	srl	s0,s0,a3
     c9c:	00f037b3          	snez	a5,a5
     ca0:	00f46433          	or	s0,s0,a5
     ca4:	00500793          	li	a5,5
     ca8:	00a7d663          	bge	a5,a0,cb4 <__floatsisf+0xcc>
     cac:	ffb50793          	addi	a5,a0,-5
     cb0:	00f41433          	sll	s0,s0,a5
     cb4:	fc0006b7          	lui	a3,0xfc000
     cb8:	fff68693          	addi	a3,a3,-1 # fbffffff <_stack_start+0xfbffcfff>
     cbc:	00747793          	andi	a5,s0,7
     cc0:	00d47633          	and	a2,s0,a3
     cc4:	02078463          	beqz	a5,cec <__floatsisf+0x104>
     cc8:	00f47793          	andi	a5,s0,15
     ccc:	00400593          	li	a1,4
     cd0:	00b78e63          	beq	a5,a1,cec <__floatsisf+0x104>
     cd4:	00460613          	addi	a2,a2,4
     cd8:	00561793          	slli	a5,a2,0x5
     cdc:	0007d863          	bgez	a5,cec <__floatsisf+0x104>
     ce0:	09f00793          	li	a5,159
     ce4:	00d67633          	and	a2,a2,a3
     ce8:	40a78733          	sub	a4,a5,a0
     cec:	00661413          	slli	s0,a2,0x6
     cf0:	00945413          	srli	s0,s0,0x9
     cf4:	0ff77793          	andi	a5,a4,255
     cf8:	f5dff06f          	j	c54 <__floatsisf+0x6c>

00000cfc <__floatunsisf>:
     cfc:	ff010113          	addi	sp,sp,-16
     d00:	00112623          	sw	ra,12(sp)
     d04:	00812423          	sw	s0,8(sp)
     d08:	04050c63          	beqz	a0,d60 <__floatunsisf+0x64>
     d0c:	00050413          	mv	s0,a0
     d10:	e7cff0ef          	jal	ra,38c <__clzsi2>
     d14:	09e00793          	li	a5,158
     d18:	40a78733          	sub	a4,a5,a0
     d1c:	09600793          	li	a5,150
     d20:	06e7c463          	blt	a5,a4,d88 <__floatunsisf+0x8c>
     d24:	00800693          	li	a3,8
     d28:	0ff77793          	andi	a5,a4,255
     d2c:	00a6d663          	bge	a3,a0,d38 <__floatunsisf+0x3c>
     d30:	ff850513          	addi	a0,a0,-8
     d34:	00a41433          	sll	s0,s0,a0
     d38:	00941413          	slli	s0,s0,0x9
     d3c:	00945413          	srli	s0,s0,0x9
     d40:	00941413          	slli	s0,s0,0x9
     d44:	00945513          	srli	a0,s0,0x9
     d48:	00c12083          	lw	ra,12(sp)
     d4c:	00812403          	lw	s0,8(sp)
     d50:	01779793          	slli	a5,a5,0x17
     d54:	00f56533          	or	a0,a0,a5
     d58:	01010113          	addi	sp,sp,16
     d5c:	00008067          	ret
     d60:	00000413          	li	s0,0
     d64:	00941413          	slli	s0,s0,0x9
     d68:	00945513          	srli	a0,s0,0x9
     d6c:	00c12083          	lw	ra,12(sp)
     d70:	00812403          	lw	s0,8(sp)
     d74:	00000793          	li	a5,0
     d78:	01779793          	slli	a5,a5,0x17
     d7c:	00f56533          	or	a0,a0,a5
     d80:	01010113          	addi	sp,sp,16
     d84:	00008067          	ret
     d88:	09900793          	li	a5,153
     d8c:	02e7d063          	bge	a5,a4,dac <__floatunsisf+0xb0>
     d90:	01b50793          	addi	a5,a0,27
     d94:	00500693          	li	a3,5
     d98:	00f417b3          	sll	a5,s0,a5
     d9c:	40a686b3          	sub	a3,a3,a0
     da0:	00f037b3          	snez	a5,a5
     da4:	00d45433          	srl	s0,s0,a3
     da8:	0087e433          	or	s0,a5,s0
     dac:	00500793          	li	a5,5
     db0:	00a7d663          	bge	a5,a0,dbc <__floatunsisf+0xc0>
     db4:	ffb50793          	addi	a5,a0,-5
     db8:	00f41433          	sll	s0,s0,a5
     dbc:	fc0006b7          	lui	a3,0xfc000
     dc0:	fff68693          	addi	a3,a3,-1 # fbffffff <_stack_start+0xfbffcfff>
     dc4:	00747793          	andi	a5,s0,7
     dc8:	00d47633          	and	a2,s0,a3
     dcc:	02078463          	beqz	a5,df4 <__floatunsisf+0xf8>
     dd0:	00f47793          	andi	a5,s0,15
     dd4:	00400593          	li	a1,4
     dd8:	00b78e63          	beq	a5,a1,df4 <__floatunsisf+0xf8>
     ddc:	00460613          	addi	a2,a2,4
     de0:	00561793          	slli	a5,a2,0x5
     de4:	0007d863          	bgez	a5,df4 <__floatunsisf+0xf8>
     de8:	09f00793          	li	a5,159
     dec:	00d67633          	and	a2,a2,a3
     df0:	40a78733          	sub	a4,a5,a0
     df4:	00661413          	slli	s0,a2,0x6
     df8:	00945413          	srli	s0,s0,0x9
     dfc:	00941413          	slli	s0,s0,0x9
     e00:	00945513          	srli	a0,s0,0x9
     e04:	00c12083          	lw	ra,12(sp)
     e08:	00812403          	lw	s0,8(sp)
     e0c:	0ff77793          	andi	a5,a4,255
     e10:	01779793          	slli	a5,a5,0x17
     e14:	00f56533          	or	a0,a0,a5
     e18:	01010113          	addi	sp,sp,16
     e1c:	00008067          	ret

00000e20 <__gesf2>:
     e20:	01755693          	srli	a3,a0,0x17
     e24:	008007b7          	lui	a5,0x800
     e28:	fff78793          	addi	a5,a5,-1 # 7fffff <_stack_start+0x7fcfff>
     e2c:	0175d613          	srli	a2,a1,0x17
     e30:	0ff6f693          	andi	a3,a3,255
     e34:	0ff00813          	li	a6,255
     e38:	00a7f8b3          	and	a7,a5,a0
     e3c:	01f55713          	srli	a4,a0,0x1f
     e40:	00b7f7b3          	and	a5,a5,a1
     e44:	0ff67613          	andi	a2,a2,255
     e48:	01f5d513          	srli	a0,a1,0x1f
     e4c:	03068a63          	beq	a3,a6,e80 <__gesf2+0x60>
     e50:	03060263          	beq	a2,a6,e74 <__gesf2+0x54>
     e54:	02069a63          	bnez	a3,e88 <__gesf2+0x68>
     e58:	00061463          	bnez	a2,e60 <__gesf2+0x40>
     e5c:	04078a63          	beqz	a5,eb0 <__gesf2+0x90>
     e60:	04088263          	beqz	a7,ea4 <__gesf2+0x84>
     e64:	06a70063          	beq	a4,a0,ec4 <__gesf2+0xa4>
     e68:	00100513          	li	a0,1
     e6c:	02071e63          	bnez	a4,ea8 <__gesf2+0x88>
     e70:	00008067          	ret
     e74:	fe0780e3          	beqz	a5,e54 <__gesf2+0x34>
     e78:	ffe00513          	li	a0,-2
     e7c:	00008067          	ret
     e80:	fe089ce3          	bnez	a7,e78 <__gesf2+0x58>
     e84:	02d60c63          	beq	a2,a3,ebc <__gesf2+0x9c>
     e88:	00061463          	bnez	a2,e90 <__gesf2+0x70>
     e8c:	fc078ee3          	beqz	a5,e68 <__gesf2+0x48>
     e90:	fca71ce3          	bne	a4,a0,e68 <__gesf2+0x48>
     e94:	02d65a63          	bge	a2,a3,ec8 <__gesf2+0xa8>
     e98:	00051863          	bnez	a0,ea8 <__gesf2+0x88>
     e9c:	00100513          	li	a0,1
     ea0:	00008067          	ret
     ea4:	fc0516e3          	bnez	a0,e70 <__gesf2+0x50>
     ea8:	fff00513          	li	a0,-1
     eac:	00008067          	ret
     eb0:	00000513          	li	a0,0
     eb4:	fa089ae3          	bnez	a7,e68 <__gesf2+0x48>
     eb8:	00008067          	ret
     ebc:	fc078ae3          	beqz	a5,e90 <__gesf2+0x70>
     ec0:	fb9ff06f          	j	e78 <__gesf2+0x58>
     ec4:	00000693          	li	a3,0
     ec8:	00c6c863          	blt	a3,a2,ed8 <__gesf2+0xb8>
     ecc:	f917eee3          	bltu	a5,a7,e68 <__gesf2+0x48>
     ed0:	00000513          	li	a0,0
     ed4:	f8f8fee3          	bgeu	a7,a5,e70 <__gesf2+0x50>
     ed8:	fc0708e3          	beqz	a4,ea8 <__gesf2+0x88>
     edc:	00070513          	mv	a0,a4
     ee0:	00008067          	ret

00000ee4 <__lesf2>:
     ee4:	01755693          	srli	a3,a0,0x17
     ee8:	008007b7          	lui	a5,0x800
     eec:	fff78793          	addi	a5,a5,-1 # 7fffff <_stack_start+0x7fcfff>
     ef0:	0175d613          	srli	a2,a1,0x17
     ef4:	0ff6f693          	andi	a3,a3,255
     ef8:	0ff00813          	li	a6,255
     efc:	00a7f8b3          	and	a7,a5,a0
     f00:	01f55713          	srli	a4,a0,0x1f
     f04:	00b7f7b3          	and	a5,a5,a1
     f08:	0ff67613          	andi	a2,a2,255
     f0c:	01f5d513          	srli	a0,a1,0x1f
     f10:	05068263          	beq	a3,a6,f54 <__lesf2+0x70>
     f14:	01060e63          	beq	a2,a6,f30 <__lesf2+0x4c>
     f18:	04069263          	bnez	a3,f5c <__lesf2+0x78>
     f1c:	02061063          	bnez	a2,f3c <__lesf2+0x58>
     f20:	00079e63          	bnez	a5,f3c <__lesf2+0x58>
     f24:	00000513          	li	a0,0
     f28:	00089e63          	bnez	a7,f44 <__lesf2+0x60>
     f2c:	00008067          	ret
     f30:	fe0784e3          	beqz	a5,f18 <__lesf2+0x34>
     f34:	00200513          	li	a0,2
     f38:	00008067          	ret
     f3c:	02088e63          	beqz	a7,f78 <__lesf2+0x94>
     f40:	04a70463          	beq	a4,a0,f88 <__lesf2+0xa4>
     f44:	00100513          	li	a0,1
     f48:	fe0702e3          	beqz	a4,f2c <__lesf2+0x48>
     f4c:	fff00513          	li	a0,-1
     f50:	00008067          	ret
     f54:	fe0890e3          	bnez	a7,f34 <__lesf2+0x50>
     f58:	02d60463          	beq	a2,a3,f80 <__lesf2+0x9c>
     f5c:	00061463          	bnez	a2,f64 <__lesf2+0x80>
     f60:	fe0782e3          	beqz	a5,f44 <__lesf2+0x60>
     f64:	fea710e3          	bne	a4,a0,f44 <__lesf2+0x60>
     f68:	02d65263          	bge	a2,a3,f8c <__lesf2+0xa8>
     f6c:	fe0510e3          	bnez	a0,f4c <__lesf2+0x68>
     f70:	00100513          	li	a0,1
     f74:	00008067          	ret
     f78:	fc050ae3          	beqz	a0,f4c <__lesf2+0x68>
     f7c:	00008067          	ret
     f80:	fe0782e3          	beqz	a5,f64 <__lesf2+0x80>
     f84:	fb1ff06f          	j	f34 <__lesf2+0x50>
     f88:	00000693          	li	a3,0
     f8c:	00c6c863          	blt	a3,a2,f9c <__lesf2+0xb8>
     f90:	fb17eae3          	bltu	a5,a7,f44 <__lesf2+0x60>
     f94:	00000513          	li	a0,0
     f98:	f8f8fae3          	bgeu	a7,a5,f2c <__lesf2+0x48>
     f9c:	fa0708e3          	beqz	a4,f4c <__lesf2+0x68>
     fa0:	00070513          	mv	a0,a4
     fa4:	00008067          	ret

00000fa8 <__mulsf3>:
     fa8:	fd010113          	addi	sp,sp,-48
     fac:	02812423          	sw	s0,40(sp)
     fb0:	01755413          	srli	s0,a0,0x17
     fb4:	01312e23          	sw	s3,28(sp)
     fb8:	01412c23          	sw	s4,24(sp)
     fbc:	00951993          	slli	s3,a0,0x9
     fc0:	02112623          	sw	ra,44(sp)
     fc4:	02912223          	sw	s1,36(sp)
     fc8:	03212023          	sw	s2,32(sp)
     fcc:	01512a23          	sw	s5,20(sp)
     fd0:	01612823          	sw	s6,16(sp)
     fd4:	0ff47413          	andi	s0,s0,255
     fd8:	0099d993          	srli	s3,s3,0x9
     fdc:	01f55a13          	srli	s4,a0,0x1f
     fe0:	10040e63          	beqz	s0,10fc <__mulsf3+0x154>
     fe4:	0ff00793          	li	a5,255
     fe8:	14f40663          	beq	s0,a5,1134 <__mulsf3+0x18c>
     fec:	00399793          	slli	a5,s3,0x3
     ff0:	04000737          	lui	a4,0x4000
     ff4:	00e7e9b3          	or	s3,a5,a4
     ff8:	f8140413          	addi	s0,s0,-127
     ffc:	00000493          	li	s1,0
    1000:	00000b13          	li	s6,0
    1004:	0175d713          	srli	a4,a1,0x17
    1008:	00959a93          	slli	s5,a1,0x9
    100c:	0ff77713          	andi	a4,a4,255
    1010:	009ada93          	srli	s5,s5,0x9
    1014:	01f5d913          	srli	s2,a1,0x1f
    1018:	10070663          	beqz	a4,1124 <__mulsf3+0x17c>
    101c:	0ff00793          	li	a5,255
    1020:	04f70463          	beq	a4,a5,1068 <__mulsf3+0xc0>
    1024:	003a9a93          	slli	s5,s5,0x3
    1028:	f8170713          	addi	a4,a4,-127 # 3ffff81 <_stack_start+0x3ffcf81>
    102c:	040007b7          	lui	a5,0x4000
    1030:	00faeab3          	or	s5,s5,a5
    1034:	00e40433          	add	s0,s0,a4
    1038:	00000693          	li	a3,0
    103c:	012a4533          	xor	a0,s4,s2
    1040:	00f00793          	li	a5,15
    1044:	00050713          	mv	a4,a0
    1048:	00140613          	addi	a2,s0,1
    104c:	1897e063          	bltu	a5,s1,11cc <__mulsf3+0x224>
    1050:	000027b7          	lui	a5,0x2
    1054:	8dc78793          	addi	a5,a5,-1828 # 18dc <cmap+0x100>
    1058:	00249493          	slli	s1,s1,0x2
    105c:	00f484b3          	add	s1,s1,a5
    1060:	0004a783          	lw	a5,0(s1)
    1064:	00078067          	jr	a5
    1068:	0ff40413          	addi	s0,s0,255
    106c:	120a9c63          	bnez	s5,11a4 <__mulsf3+0x1fc>
    1070:	0024e493          	ori	s1,s1,2
    1074:	00200693          	li	a3,2
    1078:	fc5ff06f          	j	103c <__mulsf3+0x94>
    107c:	00000513          	li	a0,0
    1080:	0ff00713          	li	a4,255
    1084:	004007b7          	lui	a5,0x400
    1088:	02c12083          	lw	ra,44(sp)
    108c:	02812403          	lw	s0,40(sp)
    1090:	00979793          	slli	a5,a5,0x9
    1094:	01771713          	slli	a4,a4,0x17
    1098:	0097d793          	srli	a5,a5,0x9
    109c:	01f51513          	slli	a0,a0,0x1f
    10a0:	00e7e7b3          	or	a5,a5,a4
    10a4:	02412483          	lw	s1,36(sp)
    10a8:	02012903          	lw	s2,32(sp)
    10ac:	01c12983          	lw	s3,28(sp)
    10b0:	01812a03          	lw	s4,24(sp)
    10b4:	01412a83          	lw	s5,20(sp)
    10b8:	01012b03          	lw	s6,16(sp)
    10bc:	00a7e533          	or	a0,a5,a0
    10c0:	03010113          	addi	sp,sp,48
    10c4:	00008067          	ret
    10c8:	00090713          	mv	a4,s2
    10cc:	000a8993          	mv	s3,s5
    10d0:	00068b13          	mv	s6,a3
    10d4:	00200793          	li	a5,2
    10d8:	0efb0263          	beq	s6,a5,11bc <__mulsf3+0x214>
    10dc:	00300793          	li	a5,3
    10e0:	f8fb0ee3          	beq	s6,a5,107c <__mulsf3+0xd4>
    10e4:	00100793          	li	a5,1
    10e8:	00070513          	mv	a0,a4
    10ec:	22fb1463          	bne	s6,a5,1314 <__mulsf3+0x36c>
    10f0:	00000713          	li	a4,0
    10f4:	00000793          	li	a5,0
    10f8:	f91ff06f          	j	1088 <__mulsf3+0xe0>
    10fc:	06099e63          	bnez	s3,1178 <__mulsf3+0x1d0>
    1100:	0175d713          	srli	a4,a1,0x17
    1104:	00959a93          	slli	s5,a1,0x9
    1108:	0ff77713          	andi	a4,a4,255
    110c:	00400493          	li	s1,4
    1110:	00000413          	li	s0,0
    1114:	00100b13          	li	s6,1
    1118:	009ada93          	srli	s5,s5,0x9
    111c:	01f5d913          	srli	s2,a1,0x1f
    1120:	ee071ee3          	bnez	a4,101c <__mulsf3+0x74>
    1124:	020a9263          	bnez	s5,1148 <__mulsf3+0x1a0>
    1128:	0014e493          	ori	s1,s1,1
    112c:	00100693          	li	a3,1
    1130:	f0dff06f          	j	103c <__mulsf3+0x94>
    1134:	02099a63          	bnez	s3,1168 <__mulsf3+0x1c0>
    1138:	00800493          	li	s1,8
    113c:	0ff00413          	li	s0,255
    1140:	00200b13          	li	s6,2
    1144:	ec1ff06f          	j	1004 <__mulsf3+0x5c>
    1148:	000a8513          	mv	a0,s5
    114c:	a40ff0ef          	jal	ra,38c <__clzsi2>
    1150:	ffb50793          	addi	a5,a0,-5
    1154:	40a40433          	sub	s0,s0,a0
    1158:	00fa9ab3          	sll	s5,s5,a5
    115c:	f8a40413          	addi	s0,s0,-118
    1160:	00000693          	li	a3,0
    1164:	ed9ff06f          	j	103c <__mulsf3+0x94>
    1168:	00c00493          	li	s1,12
    116c:	0ff00413          	li	s0,255
    1170:	00300b13          	li	s6,3
    1174:	e91ff06f          	j	1004 <__mulsf3+0x5c>
    1178:	00098513          	mv	a0,s3
    117c:	00b12623          	sw	a1,12(sp)
    1180:	a0cff0ef          	jal	ra,38c <__clzsi2>
    1184:	ffb50793          	addi	a5,a0,-5
    1188:	f8a00413          	li	s0,-118
    118c:	00f999b3          	sll	s3,s3,a5
    1190:	40a40433          	sub	s0,s0,a0
    1194:	00000493          	li	s1,0
    1198:	00000b13          	li	s6,0
    119c:	00c12583          	lw	a1,12(sp)
    11a0:	e65ff06f          	j	1004 <__mulsf3+0x5c>
    11a4:	0034e493          	ori	s1,s1,3
    11a8:	00300693          	li	a3,3
    11ac:	e91ff06f          	j	103c <__mulsf3+0x94>
    11b0:	00200793          	li	a5,2
    11b4:	000a0713          	mv	a4,s4
    11b8:	f2fb12e3          	bne	s6,a5,10dc <__mulsf3+0x134>
    11bc:	00070513          	mv	a0,a4
    11c0:	00000793          	li	a5,0
    11c4:	0ff00713          	li	a4,255
    11c8:	ec1ff06f          	j	1088 <__mulsf3+0xe0>
    11cc:	00010337          	lui	t1,0x10
    11d0:	fff30693          	addi	a3,t1,-1 # ffff <_stack_start+0xcfff>
    11d4:	0109d593          	srli	a1,s3,0x10
    11d8:	010ad893          	srli	a7,s5,0x10
    11dc:	00d9f7b3          	and	a5,s3,a3
    11e0:	00dafab3          	and	s5,s5,a3
    11e4:	03578833          	mul	a6,a5,s5
    11e8:	02f889b3          	mul	s3,a7,a5
    11ec:	01085713          	srli	a4,a6,0x10
    11f0:	03558ab3          	mul	s5,a1,s5
    11f4:	015989b3          	add	s3,s3,s5
    11f8:	01370733          	add	a4,a4,s3
    11fc:	031585b3          	mul	a1,a1,a7
    1200:	01577463          	bgeu	a4,s5,1208 <__mulsf3+0x260>
    1204:	006585b3          	add	a1,a1,t1
    1208:	000107b7          	lui	a5,0x10
    120c:	fff78793          	addi	a5,a5,-1 # ffff <_stack_start+0xcfff>
    1210:	00f776b3          	and	a3,a4,a5
    1214:	00f87833          	and	a6,a6,a5
    1218:	01069693          	slli	a3,a3,0x10
    121c:	010686b3          	add	a3,a3,a6
    1220:	00669993          	slli	s3,a3,0x6
    1224:	01075793          	srli	a5,a4,0x10
    1228:	013039b3          	snez	s3,s3
    122c:	01a6d693          	srli	a3,a3,0x1a
    1230:	00b787b3          	add	a5,a5,a1
    1234:	00679793          	slli	a5,a5,0x6
    1238:	00d9e6b3          	or	a3,s3,a3
    123c:	00d7e9b3          	or	s3,a5,a3
    1240:	00499793          	slli	a5,s3,0x4
    1244:	0007da63          	bgez	a5,1258 <__mulsf3+0x2b0>
    1248:	0019d713          	srli	a4,s3,0x1
    124c:	0019f793          	andi	a5,s3,1
    1250:	00f769b3          	or	s3,a4,a5
    1254:	00060413          	mv	s0,a2
    1258:	07f40713          	addi	a4,s0,127
    125c:	04e05663          	blez	a4,12a8 <__mulsf3+0x300>
    1260:	0079f793          	andi	a5,s3,7
    1264:	00078a63          	beqz	a5,1278 <__mulsf3+0x2d0>
    1268:	00f9f793          	andi	a5,s3,15
    126c:	00400693          	li	a3,4
    1270:	00d78463          	beq	a5,a3,1278 <__mulsf3+0x2d0>
    1274:	00498993          	addi	s3,s3,4
    1278:	00499793          	slli	a5,s3,0x4
    127c:	0007da63          	bgez	a5,1290 <__mulsf3+0x2e8>
    1280:	f80007b7          	lui	a5,0xf8000
    1284:	fff78793          	addi	a5,a5,-1 # f7ffffff <_stack_start+0xf7ffcfff>
    1288:	00f9f9b3          	and	s3,s3,a5
    128c:	08040713          	addi	a4,s0,128
    1290:	0fe00793          	li	a5,254
    1294:	06e7ca63          	blt	a5,a4,1308 <__mulsf3+0x360>
    1298:	00699793          	slli	a5,s3,0x6
    129c:	0097d793          	srli	a5,a5,0x9
    12a0:	0ff77713          	andi	a4,a4,255
    12a4:	de5ff06f          	j	1088 <__mulsf3+0xe0>
    12a8:	00100793          	li	a5,1
    12ac:	40e786b3          	sub	a3,a5,a4
    12b0:	00070a63          	beqz	a4,12c4 <__mulsf3+0x31c>
    12b4:	01b00613          	li	a2,27
    12b8:	00000713          	li	a4,0
    12bc:	00000793          	li	a5,0
    12c0:	dcd644e3          	blt	a2,a3,1088 <__mulsf3+0xe0>
    12c4:	09e40713          	addi	a4,s0,158
    12c8:	00e99733          	sll	a4,s3,a4
    12cc:	00e03733          	snez	a4,a4
    12d0:	00d9d7b3          	srl	a5,s3,a3
    12d4:	00e7e7b3          	or	a5,a5,a4
    12d8:	0077f713          	andi	a4,a5,7
    12dc:	00070a63          	beqz	a4,12f0 <__mulsf3+0x348>
    12e0:	00f7f713          	andi	a4,a5,15
    12e4:	00400693          	li	a3,4
    12e8:	00d70463          	beq	a4,a3,12f0 <__mulsf3+0x348>
    12ec:	00478793          	addi	a5,a5,4
    12f0:	00579713          	slli	a4,a5,0x5
    12f4:	02074463          	bltz	a4,131c <__mulsf3+0x374>
    12f8:	00679793          	slli	a5,a5,0x6
    12fc:	0097d793          	srli	a5,a5,0x9
    1300:	00000713          	li	a4,0
    1304:	d85ff06f          	j	1088 <__mulsf3+0xe0>
    1308:	0ff00713          	li	a4,255
    130c:	00000793          	li	a5,0
    1310:	d79ff06f          	j	1088 <__mulsf3+0xe0>
    1314:	00060413          	mv	s0,a2
    1318:	f41ff06f          	j	1258 <__mulsf3+0x2b0>
    131c:	00100713          	li	a4,1
    1320:	00000793          	li	a5,0
    1324:	d65ff06f          	j	1088 <__mulsf3+0xe0>

00001328 <__subsf3>:
    1328:	00800737          	lui	a4,0x800
    132c:	ff010113          	addi	sp,sp,-16
    1330:	fff70713          	addi	a4,a4,-1 # 7fffff <_stack_start+0x7fcfff>
    1334:	01755693          	srli	a3,a0,0x17
    1338:	0175d813          	srli	a6,a1,0x17
    133c:	00a777b3          	and	a5,a4,a0
    1340:	0ff6f693          	andi	a3,a3,255
    1344:	01f55e93          	srli	t4,a0,0x1f
    1348:	00b77633          	and	a2,a4,a1
    134c:	00912223          	sw	s1,4(sp)
    1350:	01212023          	sw	s2,0(sp)
    1354:	0ff87813          	andi	a6,a6,255
    1358:	00112623          	sw	ra,12(sp)
    135c:	00812423          	sw	s0,8(sp)
    1360:	0ff00313          	li	t1,255
    1364:	00078e13          	mv	t3,a5
    1368:	00068913          	mv	s2,a3
    136c:	000e8493          	mv	s1,t4
    1370:	00379f13          	slli	t5,a5,0x3
    1374:	01f5d593          	srli	a1,a1,0x1f
    1378:	00361513          	slli	a0,a2,0x3
    137c:	410688b3          	sub	a7,a3,a6
    1380:	14680063          	beq	a6,t1,14c0 <__subsf3+0x198>
    1384:	0015c593          	xori	a1,a1,1
    1388:	14be8c63          	beq	t4,a1,14e0 <__subsf3+0x1b8>
    138c:	0f105e63          	blez	a7,1488 <__subsf3+0x160>
    1390:	12081e63          	bnez	a6,14cc <__subsf3+0x1a4>
    1394:	24050a63          	beqz	a0,15e8 <__subsf3+0x2c0>
    1398:	fff88893          	addi	a7,a7,-1
    139c:	40af07b3          	sub	a5,t5,a0
    13a0:	02088863          	beqz	a7,13d0 <__subsf3+0xa8>
    13a4:	0ff00793          	li	a5,255
    13a8:	1cf68463          	beq	a3,a5,1570 <__subsf3+0x248>
    13ac:	01b00793          	li	a5,27
    13b0:	3317c263          	blt	a5,a7,16d4 <__subsf3+0x3ac>
    13b4:	02000713          	li	a4,32
    13b8:	41170733          	sub	a4,a4,a7
    13bc:	00e51733          	sll	a4,a0,a4
    13c0:	011557b3          	srl	a5,a0,a7
    13c4:	00e03733          	snez	a4,a4
    13c8:	00e7e7b3          	or	a5,a5,a4
    13cc:	40ff07b3          	sub	a5,t5,a5
    13d0:	00579713          	slli	a4,a5,0x5
    13d4:	20075463          	bgez	a4,15dc <__subsf3+0x2b4>
    13d8:	04000437          	lui	s0,0x4000
    13dc:	fff40413          	addi	s0,s0,-1 # 3ffffff <_stack_start+0x3ffcfff>
    13e0:	0087f433          	and	s0,a5,s0
    13e4:	00040513          	mv	a0,s0
    13e8:	fa5fe0ef          	jal	ra,38c <__clzsi2>
    13ec:	ffb50513          	addi	a0,a0,-5
    13f0:	00a417b3          	sll	a5,s0,a0
    13f4:	23254063          	blt	a0,s2,1614 <__subsf3+0x2ec>
    13f8:	41250533          	sub	a0,a0,s2
    13fc:	00150413          	addi	s0,a0,1
    1400:	02000713          	li	a4,32
    1404:	40870733          	sub	a4,a4,s0
    1408:	00e79733          	sll	a4,a5,a4
    140c:	00e03733          	snez	a4,a4
    1410:	0087d7b3          	srl	a5,a5,s0
    1414:	00e7e7b3          	or	a5,a5,a4
    1418:	00000913          	li	s2,0
    141c:	0077f713          	andi	a4,a5,7
    1420:	00070a63          	beqz	a4,1434 <__subsf3+0x10c>
    1424:	00f7f713          	andi	a4,a5,15
    1428:	00400693          	li	a3,4
    142c:	00d70463          	beq	a4,a3,1434 <__subsf3+0x10c>
    1430:	00478793          	addi	a5,a5,4
    1434:	00579713          	slli	a4,a5,0x5
    1438:	1a075663          	bgez	a4,15e4 <__subsf3+0x2bc>
    143c:	00190693          	addi	a3,s2,1
    1440:	0ff00713          	li	a4,255
    1444:	0014fe93          	andi	t4,s1,1
    1448:	1ce68063          	beq	a3,a4,1608 <__subsf3+0x2e0>
    144c:	00679793          	slli	a5,a5,0x6
    1450:	0097d793          	srli	a5,a5,0x9
    1454:	0ff6f693          	andi	a3,a3,255
    1458:	00979793          	slli	a5,a5,0x9
    145c:	00c12083          	lw	ra,12(sp)
    1460:	00812403          	lw	s0,8(sp)
    1464:	0097d513          	srli	a0,a5,0x9
    1468:	01769693          	slli	a3,a3,0x17
    146c:	01fe9793          	slli	a5,t4,0x1f
    1470:	00d56533          	or	a0,a0,a3
    1474:	00412483          	lw	s1,4(sp)
    1478:	00012903          	lw	s2,0(sp)
    147c:	00f56533          	or	a0,a0,a5
    1480:	01010113          	addi	sp,sp,16
    1484:	00008067          	ret
    1488:	0c089263          	bnez	a7,154c <__subsf3+0x224>
    148c:	00168713          	addi	a4,a3,1
    1490:	0fe77713          	andi	a4,a4,254
    1494:	18071e63          	bnez	a4,1630 <__subsf3+0x308>
    1498:	2a069a63          	bnez	a3,174c <__subsf3+0x424>
    149c:	280f0063          	beqz	t5,171c <__subsf3+0x3f4>
    14a0:	fa050ce3          	beqz	a0,1458 <__subsf3+0x130>
    14a4:	40af07b3          	sub	a5,t5,a0
    14a8:	00579713          	slli	a4,a5,0x5
    14ac:	2c075063          	bgez	a4,176c <__subsf3+0x444>
    14b0:	41e507b3          	sub	a5,a0,t5
    14b4:	00000913          	li	s2,0
    14b8:	00058493          	mv	s1,a1
    14bc:	f61ff06f          	j	141c <__subsf3+0xf4>
    14c0:	ec0502e3          	beqz	a0,1384 <__subsf3+0x5c>
    14c4:	0cbe8e63          	beq	t4,a1,15a0 <__subsf3+0x278>
    14c8:	fd1050e3          	blez	a7,1488 <__subsf3+0x160>
    14cc:	0ff00793          	li	a5,255
    14d0:	0af68063          	beq	a3,a5,1570 <__subsf3+0x248>
    14d4:	040007b7          	lui	a5,0x4000
    14d8:	00f56533          	or	a0,a0,a5
    14dc:	ed1ff06f          	j	13ac <__subsf3+0x84>
    14e0:	0d105063          	blez	a7,15a0 <__subsf3+0x278>
    14e4:	0a080063          	beqz	a6,1584 <__subsf3+0x25c>
    14e8:	0ff00793          	li	a5,255
    14ec:	08f68263          	beq	a3,a5,1570 <__subsf3+0x248>
    14f0:	040007b7          	lui	a5,0x4000
    14f4:	00f56533          	or	a0,a0,a5
    14f8:	01b00793          	li	a5,27
    14fc:	2717c063          	blt	a5,a7,175c <__subsf3+0x434>
    1500:	02000713          	li	a4,32
    1504:	41170733          	sub	a4,a4,a7
    1508:	00e51733          	sll	a4,a0,a4
    150c:	011557b3          	srl	a5,a0,a7
    1510:	00e03733          	snez	a4,a4
    1514:	00e7e7b3          	or	a5,a5,a4
    1518:	01e787b3          	add	a5,a5,t5
    151c:	00579713          	slli	a4,a5,0x5
    1520:	0a075e63          	bgez	a4,15dc <__subsf3+0x2b4>
    1524:	00190913          	addi	s2,s2,1
    1528:	0ff00713          	li	a4,255
    152c:	0ce90e63          	beq	s2,a4,1608 <__subsf3+0x2e0>
    1530:	7e0006b7          	lui	a3,0x7e000
    1534:	0017d713          	srli	a4,a5,0x1
    1538:	fff68693          	addi	a3,a3,-1 # 7dffffff <_stack_start+0x7dffcfff>
    153c:	0017f793          	andi	a5,a5,1
    1540:	00d77733          	and	a4,a4,a3
    1544:	00f767b3          	or	a5,a4,a5
    1548:	ed5ff06f          	j	141c <__subsf3+0xf4>
    154c:	40d80733          	sub	a4,a6,a3
    1550:	14069263          	bnez	a3,1694 <__subsf3+0x36c>
    1554:	1a0f0663          	beqz	t5,1700 <__subsf3+0x3d8>
    1558:	fff70713          	addi	a4,a4,-1
    155c:	22070263          	beqz	a4,1780 <__subsf3+0x458>
    1560:	0ff00793          	li	a5,255
    1564:	14f81063          	bne	a6,a5,16a4 <__subsf3+0x37c>
    1568:	00058493          	mv	s1,a1
    156c:	00060e13          	mv	t3,a2
    1570:	080e0a63          	beqz	t3,1604 <__subsf3+0x2dc>
    1574:	00000e93          	li	t4,0
    1578:	0ff00693          	li	a3,255
    157c:	004007b7          	lui	a5,0x400
    1580:	ed9ff06f          	j	1458 <__subsf3+0x130>
    1584:	06050263          	beqz	a0,15e8 <__subsf3+0x2c0>
    1588:	fff88893          	addi	a7,a7,-1
    158c:	00af07b3          	add	a5,t5,a0
    1590:	f80886e3          	beqz	a7,151c <__subsf3+0x1f4>
    1594:	0ff00793          	li	a5,255
    1598:	f6f690e3          	bne	a3,a5,14f8 <__subsf3+0x1d0>
    159c:	fd5ff06f          	j	1570 <__subsf3+0x248>
    15a0:	0a089863          	bnez	a7,1650 <__subsf3+0x328>
    15a4:	00168913          	addi	s2,a3,1
    15a8:	0fe97713          	andi	a4,s2,254
    15ac:	18071063          	bnez	a4,172c <__subsf3+0x404>
    15b0:	16069063          	bnez	a3,1710 <__subsf3+0x3e8>
    15b4:	1c0f0e63          	beqz	t5,1790 <__subsf3+0x468>
    15b8:	ea0500e3          	beqz	a0,1458 <__subsf3+0x130>
    15bc:	00af07b3          	add	a5,t5,a0
    15c0:	00579713          	slli	a4,a5,0x5
    15c4:	00000913          	li	s2,0
    15c8:	00075a63          	bgez	a4,15dc <__subsf3+0x2b4>
    15cc:	fc000737          	lui	a4,0xfc000
    15d0:	fff70713          	addi	a4,a4,-1 # fbffffff <_stack_start+0xfbffcfff>
    15d4:	00e7f7b3          	and	a5,a5,a4
    15d8:	00100913          	li	s2,1
    15dc:	0077f713          	andi	a4,a5,7
    15e0:	e40712e3          	bnez	a4,1424 <__subsf3+0xfc>
    15e4:	0037de13          	srli	t3,a5,0x3
    15e8:	0ff00793          	li	a5,255
    15ec:	f8f902e3          	beq	s2,a5,1570 <__subsf3+0x248>
    15f0:	009e1793          	slli	a5,t3,0x9
    15f4:	0097d793          	srli	a5,a5,0x9
    15f8:	0ff97693          	andi	a3,s2,255
    15fc:	0014fe93          	andi	t4,s1,1
    1600:	e59ff06f          	j	1458 <__subsf3+0x130>
    1604:	0014fe93          	andi	t4,s1,1
    1608:	0ff00693          	li	a3,255
    160c:	00000793          	li	a5,0
    1610:	e49ff06f          	j	1458 <__subsf3+0x130>
    1614:	fc000737          	lui	a4,0xfc000
    1618:	fff70713          	addi	a4,a4,-1 # fbffffff <_stack_start+0xfbffcfff>
    161c:	00e7f7b3          	and	a5,a5,a4
    1620:	0077f713          	andi	a4,a5,7
    1624:	40a90933          	sub	s2,s2,a0
    1628:	de071ee3          	bnez	a4,1424 <__subsf3+0xfc>
    162c:	fb9ff06f          	j	15e4 <__subsf3+0x2bc>
    1630:	40af0433          	sub	s0,t5,a0
    1634:	00541793          	slli	a5,s0,0x5
    1638:	1007c463          	bltz	a5,1740 <__subsf3+0x418>
    163c:	da0414e3          	bnez	s0,13e4 <__subsf3+0xbc>
    1640:	00000e93          	li	t4,0
    1644:	00000693          	li	a3,0
    1648:	00000793          	li	a5,0
    164c:	e0dff06f          	j	1458 <__subsf3+0x130>
    1650:	40d80733          	sub	a4,a6,a3
    1654:	08068463          	beqz	a3,16dc <__subsf3+0x3b4>
    1658:	0ff00793          	li	a5,255
    165c:	f0f808e3          	beq	a6,a5,156c <__subsf3+0x244>
    1660:	040007b7          	lui	a5,0x4000
    1664:	00ff6f33          	or	t5,t5,a5
    1668:	01b00793          	li	a5,27
    166c:	12e7cc63          	blt	a5,a4,17a4 <__subsf3+0x47c>
    1670:	02000793          	li	a5,32
    1674:	40e787b3          	sub	a5,a5,a4
    1678:	00ff17b3          	sll	a5,t5,a5
    167c:	00ef5733          	srl	a4,t5,a4
    1680:	00f037b3          	snez	a5,a5
    1684:	00f76733          	or	a4,a4,a5
    1688:	00a707b3          	add	a5,a4,a0
    168c:	00080913          	mv	s2,a6
    1690:	e8dff06f          	j	151c <__subsf3+0x1f4>
    1694:	0ff00793          	li	a5,255
    1698:	ecf808e3          	beq	a6,a5,1568 <__subsf3+0x240>
    169c:	040007b7          	lui	a5,0x4000
    16a0:	00ff6f33          	or	t5,t5,a5
    16a4:	01b00793          	li	a5,27
    16a8:	0ae7ce63          	blt	a5,a4,1764 <__subsf3+0x43c>
    16ac:	02000793          	li	a5,32
    16b0:	40e787b3          	sub	a5,a5,a4
    16b4:	00ff17b3          	sll	a5,t5,a5
    16b8:	00ef5733          	srl	a4,t5,a4
    16bc:	00f037b3          	snez	a5,a5
    16c0:	00f767b3          	or	a5,a4,a5
    16c4:	40f507b3          	sub	a5,a0,a5
    16c8:	00080913          	mv	s2,a6
    16cc:	00058493          	mv	s1,a1
    16d0:	d01ff06f          	j	13d0 <__subsf3+0xa8>
    16d4:	00100793          	li	a5,1
    16d8:	cf5ff06f          	j	13cc <__subsf3+0xa4>
    16dc:	0a0f0e63          	beqz	t5,1798 <__subsf3+0x470>
    16e0:	fff70713          	addi	a4,a4,-1
    16e4:	00af07b3          	add	a5,t5,a0
    16e8:	00080913          	mv	s2,a6
    16ec:	e20708e3          	beqz	a4,151c <__subsf3+0x1f4>
    16f0:	0ff00793          	li	a5,255
    16f4:	f6f81ae3          	bne	a6,a5,1668 <__subsf3+0x340>
    16f8:	00060e13          	mv	t3,a2
    16fc:	e75ff06f          	j	1570 <__subsf3+0x248>
    1700:	00060e13          	mv	t3,a2
    1704:	00080913          	mv	s2,a6
    1708:	00058493          	mv	s1,a1
    170c:	eddff06f          	j	15e8 <__subsf3+0x2c0>
    1710:	e40f0ee3          	beqz	t5,156c <__subsf3+0x244>
    1714:	e4050ee3          	beqz	a0,1570 <__subsf3+0x248>
    1718:	e5dff06f          	j	1574 <__subsf3+0x24c>
    171c:	04050c63          	beqz	a0,1774 <__subsf3+0x44c>
    1720:	00058e93          	mv	t4,a1
    1724:	00060793          	mv	a5,a2
    1728:	d31ff06f          	j	1458 <__subsf3+0x130>
    172c:	0ff00793          	li	a5,255
    1730:	ecf90ce3          	beq	s2,a5,1608 <__subsf3+0x2e0>
    1734:	00af07b3          	add	a5,t5,a0
    1738:	0017d793          	srli	a5,a5,0x1
    173c:	ea1ff06f          	j	15dc <__subsf3+0x2b4>
    1740:	41e50433          	sub	s0,a0,t5
    1744:	00058493          	mv	s1,a1
    1748:	c9dff06f          	j	13e4 <__subsf3+0xbc>
    174c:	fc0f14e3          	bnez	t5,1714 <__subsf3+0x3ec>
    1750:	e20502e3          	beqz	a0,1574 <__subsf3+0x24c>
    1754:	00058493          	mv	s1,a1
    1758:	e15ff06f          	j	156c <__subsf3+0x244>
    175c:	00100793          	li	a5,1
    1760:	db9ff06f          	j	1518 <__subsf3+0x1f0>
    1764:	00100793          	li	a5,1
    1768:	f5dff06f          	j	16c4 <__subsf3+0x39c>
    176c:	00000913          	li	s2,0
    1770:	e60796e3          	bnez	a5,15dc <__subsf3+0x2b4>
    1774:	00000e93          	li	t4,0
    1778:	00000793          	li	a5,0
    177c:	cddff06f          	j	1458 <__subsf3+0x130>
    1780:	41e507b3          	sub	a5,a0,t5
    1784:	00080913          	mv	s2,a6
    1788:	00058493          	mv	s1,a1
    178c:	c45ff06f          	j	13d0 <__subsf3+0xa8>
    1790:	00060793          	mv	a5,a2
    1794:	cc5ff06f          	j	1458 <__subsf3+0x130>
    1798:	00060e13          	mv	t3,a2
    179c:	00080913          	mv	s2,a6
    17a0:	e49ff06f          	j	15e8 <__subsf3+0x2c0>
    17a4:	00100713          	li	a4,1
    17a8:	ee1ff06f          	j	1688 <__subsf3+0x360>

000017ac <putpix>:
    17ac:	7c451073          	csrw	0x7c4,a0
    17b0:	7c559073          	csrw	0x7c5,a1
    17b4:	7c70d073          	csrwi	0x7c7,1
    17b8:	00008067          	ret

000017bc <put_leds>:
    17bc:	7c151073          	csrw	0x7c1,a0
    17c0:	00008067          	ret

000017c4 <put_ssd>:
    17c4:	7c251073          	csrw	0x7c2,a0
    17c8:	00008067          	ret

000017cc <get_btns>:
    17cc:	fc302573          	csrr	a0,0xfc3
    17d0:	00008067          	ret

000017d4 <get_switches>:
    17d4:	fc202573          	csrr	a0,0xfc2
    17d8:	00008067          	ret

000017dc <cmap>:
    17dc:	0f1e                	slli	t5,t5,0x7
    17de:	0042                	c.slli	zero,0x10
    17e0:	140e                	slli	s0,s0,0x23
    17e2:	0028                	addi	a0,sp,8
    17e4:	00191a07          	0x191a07
    17e8:	00112303          	lw	t1,1(sp)
    17ec:	2f01                	jal	1efc <_etext+0x5b8>
    17ee:	0009                	c.nop	2
    17f0:	00063803          	0x63803
    17f4:	4904                	lw	s1,16(a0)
    17f6:	0004                	0x4
    17f8:	5805                	li	a6,-31
    17fa:	0002                	c.slli64	zero
    17fc:	00006407          	0x6407
    1800:	7714                	flw	fa3,40(a4)
    1802:	0006                	c.slli	zero,0x1
    1804:	8a2c                	0x8a2c
    1806:	000c                	0xc
    1808:	9b3c                	0x9b3c
    180a:	0012                	c.slli	zero,0x4
    180c:	b152                	fsd	fs4,160(sp)
    180e:	0018                	0x18
    1810:	c064                	sw	s1,68(s0)
    1812:	0028                	addi	a0,sp,8
    1814:	d17d                	beqz	a0,17fa <cmap+0x1e>
    1816:	0039                	c.nop	14
    1818:	db98                	sw	a4,48(a5)
    181a:	0039                	c.nop	14
    181c:	e5b5                	bnez	a1,1888 <cmap+0xac>
    181e:	005f efb5 0086      	0x86efb5005f
    1824:	f8d0                	fsw	fa2,52(s1)
    1826:	00ac                	addi	a1,sp,72
    1828:	f8ec                	fsw	fa1,116(s1)
    182a:	dbea00d3          	0xdbea00d3
    182e:	00e2                	slli	ra,ra,0x18
    1830:	bfe9                	j	180a <cmap+0x2e>
    1832:	00f1                	addi	ra,ra,28
    1834:	8fd8                	0x8fd8
    1836:	00f4                	addi	a3,sp,76
    1838:	5fc9                	li	t6,-14
    183a:	00f8                	addi	a4,sp,76
    183c:	2fb9                	jal	1f9a <_etext+0x656>
    183e:	00aa00fb          	0xaa00fb
    1842:	00ff                	0xff
    1844:	0095                	addi	ra,ra,5
    1846:	00e5                	addi	ra,ra,25
    1848:	0080                	addi	s0,sp,64
    184a:	00cc                	addi	a1,sp,68
    184c:	00b2006b          	0xb2006b
    1850:	00990157          	0x990157
    1854:	0346                	slli	t1,t1,0x11
    1856:	0081                	addi	ra,ra,0
    1858:	0334                	addi	a3,sp,392
    185a:	006a                	c.slli	zero,0x1a
    185c:	0a94                	addi	a3,sp,336
    185e:	0000                	unimp
    1860:	0968                	addi	a0,sp,156
    1862:	0000                	unimp
    1864:	0a88                	addi	a0,sp,336
    1866:	0000                	unimp
    1868:	0974                	addi	a3,sp,156
    186a:	0000                	unimp
    186c:	0a88                	addi	a0,sp,336
    186e:	0000                	unimp
    1870:	0918                	addi	a4,sp,144
    1872:	0000                	unimp
    1874:	0a88                	addi	a0,sp,336
    1876:	0000                	unimp
    1878:	0974                	addi	a3,sp,156
    187a:	0000                	unimp
    187c:	0968                	addi	a0,sp,156
    187e:	0000                	unimp
    1880:	0968                	addi	a0,sp,156
    1882:	0000                	unimp
    1884:	0918                	addi	a4,sp,144
    1886:	0000                	unimp
    1888:	0974                	addi	a3,sp,156
    188a:	0000                	unimp
    188c:	0980                	addi	s0,sp,208
    188e:	0000                	unimp
    1890:	0980                	addi	s0,sp,208
    1892:	0000                	unimp
    1894:	0980                	addi	s0,sp,208
    1896:	0000                	unimp
    1898:	0918                	addi	a4,sp,144
    189a:	0000                	unimp
    189c:	0968                	addi	a0,sp,156
    189e:	0000                	unimp
    18a0:	0968                	addi	a0,sp,156
    18a2:	0000                	unimp
    18a4:	0a88                	addi	a0,sp,336
    18a6:	0000                	unimp
    18a8:	0bac                	addi	a1,sp,472
    18aa:	0000                	unimp
    18ac:	0a88                	addi	a0,sp,336
    18ae:	0000                	unimp
    18b0:	0918                	addi	a4,sp,144
    18b2:	0000                	unimp
    18b4:	0a88                	addi	a0,sp,336
    18b6:	0000                	unimp
    18b8:	0bac                	addi	a1,sp,472
    18ba:	0000                	unimp
    18bc:	0968                	addi	a0,sp,156
    18be:	0000                	unimp
    18c0:	0968                	addi	a0,sp,156
    18c2:	0000                	unimp
    18c4:	0918                	addi	a4,sp,144
    18c6:	0000                	unimp
    18c8:	0bac                	addi	a1,sp,472
    18ca:	0000                	unimp
    18cc:	0980                	addi	s0,sp,208
    18ce:	0000                	unimp
    18d0:	0980                	addi	s0,sp,208
    18d2:	0000                	unimp
    18d4:	0980                	addi	s0,sp,208
    18d6:	0000                	unimp
    18d8:	0918                	addi	a4,sp,144
    18da:	0000                	unimp
    18dc:	11cc                	addi	a1,sp,228
    18de:	0000                	unimp
    18e0:	10cc                	addi	a1,sp,100
    18e2:	0000                	unimp
    18e4:	10cc                	addi	a1,sp,100
    18e6:	0000                	unimp
    18e8:	10c8                	addi	a0,sp,100
    18ea:	0000                	unimp
    18ec:	10d4                	addi	a3,sp,100
    18ee:	0000                	unimp
    18f0:	10d4                	addi	a3,sp,100
    18f2:	0000                	unimp
    18f4:	107c                	addi	a5,sp,44
    18f6:	0000                	unimp
    18f8:	10c8                	addi	a0,sp,100
    18fa:	0000                	unimp
    18fc:	10d4                	addi	a3,sp,100
    18fe:	0000                	unimp
    1900:	107c                	addi	a5,sp,44
    1902:	0000                	unimp
    1904:	10d4                	addi	a3,sp,100
    1906:	0000                	unimp
    1908:	10c8                	addi	a0,sp,100
    190a:	0000                	unimp
    190c:	11b0                	addi	a2,sp,232
    190e:	0000                	unimp
    1910:	11b0                	addi	a2,sp,232
    1912:	0000                	unimp
    1914:	11b0                	addi	a2,sp,232
    1916:	0000                	unimp
    1918:	107c                	addi	a5,sp,44
	...

0000191c <MinIm_tab>:
    191c:	999a                	add	s3,s3,t1
    191e:	bf99                	j	1874 <cmap+0x98>
    1920:	519e                	lw	gp,228(sp)
    1922:	3df0                	fld	fa2,248(a1)

00001924 <MaxRe_tab>:
    1924:	0000                	unimp
    1926:	3f80                	fld	fs0,56(a5)
    1928:	aec1                	j	1cf8 <_etext+0x3b4>
    192a:	bf42                	fsd	fa6,440(sp)

0000192c <MinRe_tab>:
    192c:	0000                	unimp
    192e:	c000                	sw	s0,0(s0)
    1930:	bf4be157          	0xbf4be157
    1934:	0000                	unimp
    1936:	4380                	lw	s0,0(a5)
    1938:	0000                	unimp
    193a:	3b80                	fld	fs0,48(a5)
    193c:	0000                	unimp
    193e:	437f                	0x437f
    1940:	0000                	unimp
    1942:	4080                	lw	s0,0(s1)
